; Listing generated by Microsoft (R) Optimizing Compiler Version 14.00.50727.42 

	TITLE	c:\Users\상우\Documents\카카오톡 받은 파일\MylysOS\kernel.c
	.686P
	.XMM
	include listing.inc
	.model	flat

INCLUDELIB MSVCRTD
INCLUDELIB OLDNAMES

PUBLIC	??_C@_0CN@JPBINMDN@SysInitializeSyscall?$CI?$CJ?5returned?5@ ; `string'
PUBLIC	??_C@_0DD@PGNILLPJ@PskInitializeProcessManager?$CI?$CJ?5re@ ; `string'
PUBLIC	??_C@_0DC@HMPJPCFD@MmkInitializeMemoryManager?$CI?$CJ?5ret@ ; `string'
PUBLIC	??_C@_0CI@GFPEFDPE@HalInitializeHal?$CI?$CJ?5returned?5an?5e@ ; `string'
PUBLIC	_KrnInitializeKernel
EXTRN	_SysInitializeSyscall:PROC
EXTRN	_PskInitializeProcessManager:PROC
EXTRN	_MmkInitializeMemoryManager:PROC
EXTRN	_CrtPrintf:PROC
EXTRN	_HalInitializeHal:PROC
;	COMDAT ??_C@_0CN@JPBINMDN@SysInitializeSyscall?$CI?$CJ?5returned?5@
; File c:\users\상우\documents\카카오톡 받은 파일\mylysos\kernel.c
CONST	SEGMENT
??_C@_0CN@JPBINMDN@SysInitializeSyscall?$CI?$CJ?5returned?5@ DB 'SysIniti'
	DB	'alizeSyscall() returned an error. ', 0dH, 0aH, 00H ; `string'
CONST	ENDS
;	COMDAT ??_C@_0DD@PGNILLPJ@PskInitializeProcessManager?$CI?$CJ?5re@
CONST	SEGMENT
??_C@_0DD@PGNILLPJ@PskInitializeProcessManager?$CI?$CJ?5re@ DB 'PskInitia'
	DB	'lizeProcessManager() returned an error.', 0dH, 0aH, 00H ; `string'
CONST	ENDS
;	COMDAT ??_C@_0DC@HMPJPCFD@MmkInitializeMemoryManager?$CI?$CJ?5ret@
CONST	SEGMENT
??_C@_0DC@HMPJPCFD@MmkInitializeMemoryManager?$CI?$CJ?5ret@ DB 'MmkInitia'
	DB	'lizeMemoryManager() returned an error.', 0dH, 0aH, 00H ; `string'
CONST	ENDS
;	COMDAT ??_C@_0CI@GFPEFDPE@HalInitializeHal?$CI?$CJ?5returned?5an?5e@
CONST	SEGMENT
??_C@_0CI@GFPEFDPE@HalInitializeHal?$CI?$CJ?5returned?5an?5e@ DB 'HalInit'
	DB	'ializeHal() returned an error.', 0dH, 0aH, 00H ; `string'
; Function compile flags: /Odtp /ZI
CONST	ENDS
;	COMDAT _KrnInitializeKernel
_TEXT	SEGMENT
_KrnInitializeKernel PROC				; COMDAT

; 10   : {

  00000	55		 push	 ebp
  00001	8b ec		 mov	 ebp, esp
  00003	83 ec 40	 sub	 esp, 64			; 00000040H
  00006	53		 push	 ebx
  00007	56		 push	 esi
  00008	57		 push	 edi

; 11   : 	if(!HalInitializeHal()) {

  00009	e8 00 00 00 00	 call	 _HalInitializeHal
  0000e	85 c0		 test	 eax, eax
  00010	75 11		 jne	 SHORT $LN4@KrnInitial

; 12   : 		DbgPrint("HalInitializeHal() returned an error.\r\n");

  00012	68 00 00 00 00	 push	 OFFSET ??_C@_0CI@GFPEFDPE@HalInitializeHal?$CI?$CJ?5returned?5an?5e@
  00017	e8 00 00 00 00	 call	 _CrtPrintf
  0001c	83 c4 04	 add	 esp, 4

; 13   : 		return FALSE;

  0001f	33 c0		 xor	 eax, eax
  00021	eb 53		 jmp	 SHORT $LN5@KrnInitial
$LN4@KrnInitial:

; 14   : 	}
; 15   : 
; 16   : 	if(!MmkInitializeMemoryManager()) {

  00023	e8 00 00 00 00	 call	 _MmkInitializeMemoryManager
  00028	85 c0		 test	 eax, eax
  0002a	75 11		 jne	 SHORT $LN3@KrnInitial

; 17   : 		DbgPrint("MmkInitializeMemoryManager() returned an error.\r\n");

  0002c	68 00 00 00 00	 push	 OFFSET ??_C@_0DC@HMPJPCFD@MmkInitializeMemoryManager?$CI?$CJ?5ret@
  00031	e8 00 00 00 00	 call	 _CrtPrintf
  00036	83 c4 04	 add	 esp, 4

; 18   : 		return FALSE;

  00039	33 c0		 xor	 eax, eax
  0003b	eb 39		 jmp	 SHORT $LN5@KrnInitial
$LN3@KrnInitial:

; 19   : 	}
; 20   : 	
; 21   : 	if(!PskInitializeProcessManager()) {

  0003d	e8 00 00 00 00	 call	 _PskInitializeProcessManager
  00042	85 c0		 test	 eax, eax
  00044	75 11		 jne	 SHORT $LN2@KrnInitial

; 22   : 		DbgPrint("PskInitializeProcessManager() returned an error.\r\n");

  00046	68 00 00 00 00	 push	 OFFSET ??_C@_0DD@PGNILLPJ@PskInitializeProcessManager?$CI?$CJ?5re@
  0004b	e8 00 00 00 00	 call	 _CrtPrintf
  00050	83 c4 04	 add	 esp, 4

; 23   : 		return FALSE;

  00053	33 c0		 xor	 eax, eax
  00055	eb 1f		 jmp	 SHORT $LN5@KrnInitial
$LN2@KrnInitial:

; 24   : 	}
; 25   : 
; 26   : 	if(!SysInitializeSyscall()) {

  00057	e8 00 00 00 00	 call	 _SysInitializeSyscall
  0005c	85 c0		 test	 eax, eax
  0005e	75 11		 jne	 SHORT $LN1@KrnInitial

; 27   : 		DbgPrint("SysInitializeSyscall() returned an error. \r\n");

  00060	68 00 00 00 00	 push	 OFFSET ??_C@_0CN@JPBINMDN@SysInitializeSyscall?$CI?$CJ?5returned?5@
  00065	e8 00 00 00 00	 call	 _CrtPrintf
  0006a	83 c4 04	 add	 esp, 4

; 28   : 		return FALSE;

  0006d	33 c0		 xor	 eax, eax
  0006f	eb 05		 jmp	 SHORT $LN5@KrnInitial
$LN1@KrnInitial:

; 29   : 	}
; 30   : 
; 31   : 	return TRUE;

  00071	b8 01 00 00 00	 mov	 eax, 1
$LN5@KrnInitial:

; 32   : }

  00076	5f		 pop	 edi
  00077	5e		 pop	 esi
  00078	5b		 pop	 ebx
  00079	8b e5		 mov	 esp, ebp
  0007b	5d		 pop	 ebp
  0007c	c3		 ret	 0
_KrnInitializeKernel ENDP
_TEXT	ENDS
END
