 myljmos

 Timestamp is 5756ad2a (Tue Jun 07 20:16:58 2016)

 Preferred load address is 00020000

 Start         Length     Name                   Class
 0001:00000000 000041f8H .text                   CODE
 0002:00000000 00000b57H .rdata                  DATA
 0002:00000b57 00000000H .edata                  DATA
 0003:00000000 00000480H .data                   DATA
 0003:00000480 00003474H .bss                    DATA

  Address         Publics by Value              Rva+Base     Lib:Object

 0001:00000000       _EntryPoint16              00021000 f   entry.obj
 0001:0000001d       EntryPoint32               0002101d f   entry.obj
 0001:00000048       _WRITE_PORT_UCHAR          00021048 f   hal_asm.obj
 0001:00000058       _READ_PORT_UCHAR           00021058 f   hal_asm.obj
 0001:00000063       _HalpEnableInterrupt       00021063 f   hal_asm.obj
 0001:00000070       _HalTaskSwitch             00021070 f   hal_asm.obj
 0001:00000080       _CrtPrintf                 00021080 f   6845crt.obj
 0001:00000120       _CrtPrintTextXYWithAttr    00021120 f   6845crt.obj
 0001:00000540       _CrtInitializeDriver       00021540 f   6845crt.obj
 0001:00000560       _CrtClearScreen            00021560 f   6845crt.obj
 0001:000005b0       _CrtPrintText              000215b0 f   6845crt.obj
 0001:000005e0       _CrtGetCursorPos           000215e0 f   6845crt.obj
 0001:00000610       _FsInitializeModule        00021610 f   fatfs.obj
 0001:00000660       _FsGetFileList             00021660 f   fatfs.obj
 0001:000007d0       _FsOpenFile                000217d0 f   fatfs.obj
 0001:00000910       _FsCloseFile               00021910 f   fatfs.obj
 0001:00000940       _FsReadFile                00021940 f   fatfs.obj
 0001:00000bb0       _FddInitializeDriver       00021bb0 f   fdddrv.obj
 0001:00000c30       _Fdd_IRQ_Handler           00021c30 f   fdddrv.obj
 0001:00001090       _FddReadSector             00022090 f   fdddrv.obj
 0001:000011d0       _HalInitializeHal          000221d0 f   hal.obj
 0001:00001200       _HalSetupTSS               00022200 f   hal.obj
 0001:000012f0       _HalSetupTaskSwitchingEnv  000222f0 f   hal.obj
 0001:00001370       _HalSetupTaskLink          00022370 f   hal.obj
 0001:000013b0       _HalWriteTssIntoGdt        000223b0 f   hal.obj
 0001:00001490       _HalChangeTssBusyBit       00022490 f   hal.obj
 0001:00001d90       _HshInitializeShell        00022d90 f   hshell.obj
 0001:00002480       _KbdInitializeDriver       00023480 f   kbddrv.obj
 0001:00002510       _KbdGetKey                 00023510 f   kbddrv.obj
 0001:00002540       _Kbd_IRQ_Handler           00023540 f   kbddrv.obj
 0001:000029e0       _KrnInitializeKernel       000239e0 f   kernel.obj
 0001:00002a60       _MmkInitializeMemoryManager 00023a60 f   mmanager.obj
 0001:00002c90       _MmAllocateNonCachedMemory 00023c90 f   mmanager.obj
 0001:00002df0       _MmFreeNonCachedMemory     00023df0 f   mmanager.obj
 0001:00002ed0       _mylysos_init              00023ed0 f   mylysos.obj
 0001:00002fc0       _PsShowTSWachdogClock      00023fc0 f   process.obj
 0001:00002ff0       _PskInitializeProcessManager 00023ff0 f   process.obj
 0001:00003090       _PsCreateProcess           00024090 f   process.obj
 0001:00003120       _PsCreateThread            00024120 f   process.obj
 0001:00003260       _PsCreateIntThread         00024260 f   process.obj
 0001:00003350       _PsSetThreadStatus         00024350 f   process.obj
 0001:00003370       _PsGetCurrentThread        00024370 f   process.obj
 0001:00003390       _PsDeleteThread            00024390 f   process.obj
 0001:00003bd0       _memset                    00024bd0 f   string.obj
 0001:00003c10       _strupr                    00024c10 f   string.obj
 0001:00003c70       _strcmp                    00024c70 f   string.obj
 0001:00003cd0       _strlen                    00024cd0 f   string.obj
 0001:00003d10       _memcpy                    00024d10 f   string.obj
 0001:00003d60       _SysInitializeSyscall      00024d60 f   syscall.obj
 0001:00003db0       _SysGetSyscallStackPtr     00024db0 f   syscall.obj
 0001:00003dd0       _SysGetSyscallStackSize    00024dd0 f   syscall.obj
 0001:00003e90       _vsprintf                  00024e90 f   vsprintf.obj
 0002:00000000       ??_C@_0CI@EAEBLLGL@FspLoadDirEntry?$CI?$CJ?5returned?5an?5er@ 00026000     fatfs.obj
 0002:00000028       ??_C@_0CD@KKIBFCFD@FspLoadFAT?$CI?$CJ?5returned?5an?5error?4?5@ 00026028     fatfs.obj
 0002:0000004c       ??_C@_0BH@DBHHHLIF@Reading?5FAT?5Table?4?4?4?$AN?6?$AA@ 0002604c     fatfs.obj
 0002:00000064       ??_C@_0CA@EIKHPAPI@Reading?5Directory?5Entries?4?4?4?5?$AN?6?$AA@ 00026064     fatfs.obj
 0002:00000084       ??_C@_0CH@MHIGPNEI@FddTurnOffMotor?$CI?$CJ?5returned?5an?5er@ 00026084     fdddrv.obj
 0002:000000ac       ??_C@_0BI@NMHEANFH@Halp_IRQ_HardDrive?$CI?$CJ?5?$AN?6?$AA@ 000260ac     hal.obj
 0002:000000c4       ??_C@_0BO@DKPJFPAC@Halp_IRQ_MathCoprocessor?$CI?$CJ?5?$AN?6?$AA@ 000260c4     hal.obj
 0002:000000e4       ??_C@_0BE@NEDDPGBJ@Halp_IRQ_Mouse?$CI?$CJ?5?$AN?6?$AA@ 000260e4     hal.obj
 0002:000000f8       ??_C@_0BC@IGOLJKOG@Halp_IRQ_VGA?$CI?$CJ?5?$AN?6?$AA@ 000260f8     hal.obj
 0002:0000010c       ??_C@_0BI@MCNHIJMG@Halp_IRQ_CMOSClock?$CI?$CJ?5?$AN?6?$AA@ 0002610c     hal.obj
 0002:00000124       ??_C@_0BD@BMGLEMCE@Halp_IRQ_LPT1?$CI?$CJ?5?$AN?6?$AA@ 00026124     hal.obj
 0002:00000138       ??_C@_0BD@CNIDFGLJ@Halp_IRQ_LPT2?$CI?$CJ?5?$AN?6?$AA@ 00026138     hal.obj
 0002:0000014c       ??_C@_0BD@PNONLAAJ@Halp_IRQ_COM1?$CI?$CJ?5?$AN?6?$AA@ 0002614c     hal.obj
 0002:00000160       ??_C@_0BD@MMAFKKJE@Halp_IRQ_COM2?$CI?$CJ?5?$AN?6?$AA@ 00026160     hal.obj
 0002:00000174       ??_C@_0BP@BPMNCKPI@Halp_IRQ_ReqFromSlave8259?$CI?$CJ?5?$AN?6?$AA@ 00026174     hal.obj
 0002:00000194       ??_C@_0BL@NHEAFIGN@Halp_ECT_MachineCheck?$CI?$CJ?5?$AN?6?$AA@ 00026194     hal.obj
 0002:000001b0       ??_C@_0BN@IIPPLJCI@Halp_ECT_AlignmentCheck?$CI?$CJ?5?$AN?6?$AA@ 000261b0     hal.obj
 0002:000001d0       ??_C@_0CB@BAMOPHKE@Halp_ECT_FloatingPointError?$CI?$CJ?5?$AN?6@ 000261d0     hal.obj
 0002:000001f4       ??_C@_0BI@ECFHJJPN@Halp_ECT_PageFault?$CI?$CJ?5?$AN?6?$AA@ 000261f4     hal.obj
 0002:0000020c       ??_C@_0CA@BNNEHHMP@Halp_ECT_GeneralProtection?$CI?$CJ?5?$AN?6?$AA@ 0002620c     hal.obj
 0002:0000022c       ??_C@_0BN@IPDIOMJP@Halp_ECT_StackException?$CI?$CJ?5?$AN?6?$AA@ 0002622c     hal.obj
 0002:0000024c       ??_C@_0CA@NKBGCIFH@Halp_ECT_SegmentNotPresent?$CI?$CJ?5?$AN?6?$AA@ 0002624c     hal.obj
 0002:0000026c       ??_C@_0BJ@PELGBAAP@Halp_ECT_InvalidTSS?$CI?$CJ?5?$AN?6?$AA@ 0002626c     hal.obj
 0002:00000288       ??_C@_0CB@KDIHIBHF@Halp_ECT_CoprocessorOverrun?$CI?$CJ?5?$AN?6@ 00026288     hal.obj
 0002:000002ac       ??_C@_0CB@LIGLLFBG@Halp_ECT_DeviceNotAvailable?$CI?$CJ?5?$AN?6@ 000262ac     hal.obj
 0002:000002d0       ??_C@_0BM@EDOCEHEB@Halp_ECT_InvaildOpcode?$CI?$CJ?5?$AN?6?$AA@ 000262d0     hal.obj
 0002:000002ec       ??_C@_0BF@GOILIIOG@Halp_ECT_BOUNDS?$CI?$CJ?5?$AN?6?$AA@ 000262ec     hal.obj
 0002:00000304       ??_C@_0BD@PJNACMJH@Halp_ECT_INTO?$CI?$CJ?5?$AN?6?$AA@ 00026304     hal.obj
 0002:00000318       ??_C@_0BJ@CHEGJKKD@Halp_ECT_Breakpoint?$CI?$CJ?5?$AN?6?$AA@ 00026318     hal.obj
 0002:00000334       ??_C@_0BC@EPIMJMAK@Halp_ECT_NMI?$CI?$CJ?5?$AN?6?$AA@ 00026334     hal.obj
 0002:00000348       ??_C@_0BN@LHNLHKKE@Halp_ECT_DebugException?$CI?$CJ?5?$AN?6?$AA@ 00026348     hal.obj
 0002:00000368       ??_C@_0BL@DCNBJOMK@Halp_ECT_DivideByZero?$CI?$CJ?5?$AN?6?$AA@ 00026368     hal.obj
 0002:00000384       ??_C@_0CP@DIODDKOF@HalpInitializeProcessor?$CI?$CJ?5return@ 00026384     hal.obj
 0002:000003b4       ??_C@_0CD@FBKHEGHB@Interrupt?5Service?5is?5installed?$CB?$CB@ 000263b4     hal.obj
 0002:000003d8       ??_C@_0CL@KJAKIFMC@HalpStartIntService?$CI?$CJ?5returned?5a@ 000263d8     hal.obj
 0002:00000404       ??_C@_0BP@OLPBBHME@SystemTimer?5is?5initialized?$CB?$CB?$AN?6?$AA@ 00026404     hal.obj
 0002:00000424       ??_C@_0CI@HNIFLDMK@HalpInitSysTimer?$CI?$CJ?5returned?5an?5e@ 00026424     hal.obj
 0002:0000044c       ??_C@_0BD@GMFGECEC@PIC?5is?5success?$CB?$CB?$AN?6?$AA@ 0002644c     hal.obj
 0002:00000460       ??_C@_0CD@GOIDGDAA@HalpInitPIC?$CI?$CJ?5returned?5an?5error?4@ 00026460     hal.obj
 0002:00000484       ??_C@_0BI@MIIPFAGL@A20?5line?5is?5success?$CB?$CB?$AN?6?$AA@ 00026484     hal.obj
 0002:0000049c       ??_C@_0CF@GHKHCIHI@HalpEnableA20?$CI?$CJ?5returned?5an?5erro@ 0002649c     hal.obj
 0002:000004c4       ??_C@_0CB@FJNLJOKK@bp?0?5?$CD1?30x?$CFx?0?5?$CD2?30x?$CFx?0?5?$CD3?30x?$CFx?5?$AN?6@ 000264c4     hal.obj
 0002:000004e8       ??_C@_0CB@LEODENJF@gp?0?5?$CD1?30x?$CFx?0?5?$CD2?30x?$CFx?0?5?$CD3?30x?$CFx?5?$AN?6@ 000264e8     hal.obj
 0002:0000050c       ??_C@_04HEDFJGEJ@FREE?$AA@ 0002650c     hshell.obj
 0002:00000514       ??_C@_02PNJEAGMK@PS?$AA@   00026514     hshell.obj
 0002:00000518       ??_C@_04KDPJLEDB@TYPE?$AA@ 00026518     hshell.obj
 0002:00000520       ??_C@_03DNALGGBA@DIR?$AA@  00026520     hshell.obj
 0002:00000524       ??_C@_06FDJJHOKF@TOGGLE?$AA@ 00026524     hshell.obj
 0002:0000052c       ??_C@_03MOABAAGA@VER?$AA@  0002652c     hshell.obj
 0002:00000530       ??_C@_03LPAMKNAD@CLS?$AA@  00026530     hshell.obj
 0002:00000534       ??_C@_04DOKPJKJF@HELP?$AA@ 00026534     hshell.obj
 0002:0000053c       ??_C@_02HAOIJKIC@?$CFc?$AA@ 0002653c     hshell.obj
 0002:00000540       ??_C@_04OHLLKNHH@A?3?2?$DO?$AA@ 00026540     hshell.obj
 0002:00000548       ??_C@_0CK@LBAJIGLI@FsInitializeModule?$CI?$CJ?5returned?5an@ 00026548     hshell.obj
 0002:00000578       ??_C@_0BEO@FJKGICKF@help?7?7?3?7View?5available?5commands?5@ 00026578     hshell.obj
 0002:000006c8       ??_C@_0KH@IFCACION@OS?5Version?7?7?3?5mylysOS?5OS?7?$CI?$CFs?$CJ?5?$AN?6@ 000266c8     hshell.obj
 0002:00000770       ??_C@_0BK@GGEDINEJ@1st?5released?4?52016?905?927?4?$AA@ 00026770     hshell.obj
 0002:0000078c       ??_C@_02PCIJFNDE@?$AN?6?$AA@ 0002678c     hshell.obj
 0002:00000790       ??_C@_02DKCKIIND@?$CFs?$AA@ 00026790     hshell.obj
 0002:00000794       ??_C@_0BO@FNCEECAM@ERROR?3?5?5?8?$CFs?8?5is?5not?5exist?$CB?5?$AN?6?$AA@ 00026794     hshell.obj
 0002:000007b4       ??_C@_0BO@BMMHEOJD@ERROR?5?3?5No?5selected?5files?4?5?$AN?6?$AA@ 000267b4     hshell.obj
 0002:000007d4       ??_C@_0BM@DNEELDPM@?7?7?7Total?5Directories?3?5?$CFd?5?$AN?6?$AA@ 000267d4     hshell.obj
 0002:000007f0       ??_C@_0CN@CBIFEMAD@?7?7?7Total?5File?5Size?3?5?$CFd?5bytes?5?7?5?$CI@ 000267f0     hshell.obj
 0002:00000820       ??_C@_0DA@LHPHMEJH@?$CF0d?9?$CF02d?9?$CF02d?5?7?5?$CF02d?3?$CF02d?5?$CFs?5?$CF7d@ 00026820     hshell.obj
 0002:00000850       ??_C@_05IFKLLJBC@?5?5?5?5?5?$AA@ 00026850     hshell.obj
 0002:00000858       ??_C@_05FIBHJBBH@?$DMDIR?$DO?$AA@ 00026858     hshell.obj
 0002:00000860       ??_C@_04GPOGLGKJ@A?4M?4?$AA@ 00026860     hshell.obj
 0002:00000868       ??_C@_04DCGGAIJL@P?4M?4?$AA@ 00026868     hshell.obj
 0002:00000870       ??_C@_07NGDAHO@ps?5s?5?$AN?6?$AA@ 00026870     hshell.obj
 0002:00000878       ??_C@_09LEIHIOLO@free?5s?5?$AN?6?$AA@ 00026878     hshell.obj
 0002:00000884       ??_C@_0CN@JPBINMDN@SysInitializeSyscall?$CI?$CJ?5returned?5@ 00026884     kernel.obj
 0002:000008b4       ??_C@_0DD@PGNILLPJ@PskInitializeProcessManager?$CI?$CJ?5re@ 000268b4     kernel.obj
 0002:000008e8       ??_C@_0DC@HMPJPCFD@MmkInitializeMemoryManager?$CI?$CJ?5ret@ 000268e8     kernel.obj
 0002:0000091c       ??_C@_0CI@GFPEFDPE@HalInitializeHal?$CI?$CJ?5returned?5an?5e@ 0002691c     kernel.obj
 0002:00000944       ??_C@_0CC@MPDKKHPO@Memory?5Manager?5is?5initialized?$CB?$CB?$AN@ 00026944     mmanager.obj
 0002:00000968       ??_C@_0CL@OPLLCJPO@MmpCreateMemPookBlk?$CI?$CJ?5returned?5a@ 00026968     mmanager.obj
 0002:00000994       ??_C@_0CK@BFFNBLEM@MmpCheckMemorySize?$CI?$CJ?5returned?5an@ 00026994     mmanager.obj
 0002:000009c0       ??_C@_0BB@CINOICC@Booting?5Error?$CB?$AN?6?$AA@ 000269c0     mylysos.obj
 0002:000009d4       ??_C@_0CK@NNIAHEIK@HshInitializeShell?$CI?$CJ?5returned?5an@ 000269d4     mylysos.obj
 0002:00000a00       ??_C@_0DD@GHBOJMFM@Floppy?5Disk?5Driver?5is?5initialize@ 00026a00     mylysos.obj
 0002:00000a34       ??_C@_0CL@LECLFJDL@FddInitializeDriver?$CI?$CJ?5returned?5a@ 00026a34     mylysos.obj
 0002:00000a60       ??_C@_0DA@BAJDKHNK@Keyboard?5Driver?5is?5initialized?5s@ 00026a60     mylysos.obj
 0002:00000a90       ??_C@_0CL@BBHNNJJA@KbdInitializeDriver?$CI?$CJ?5returned?5a@ 00026a90     mylysos.obj
 0002:00000abc       ??_C@_0CL@EKIIKDMP@KrnInitializeKernel?$CI?$CJ?5returned?5a@ 00026abc     mylysos.obj
 0002:00000ae8       ??_C@_0BC@CPDHJIFL@Halting?5system?4?$AN?6?$AA@ 00026ae8     mylysos.obj
 0002:00000afc       ??_C@_0CO@KFBIJEKH@PspCreateSystemProcess?$CI?$CJ?5returne@ 00026afc     process.obj
 0002:00000b2c       ??_C@_0CL@BMDCEDJF@SysSetupSysCallgate?$CI?$CJ?5returned?5a@ 00026b2c     syscall.obj
 0003:00000000       _m_GdtrDesc                00027000     entry.obj
 0003:00000008       _m_GdtTable                00027008     entry.obj

 entry point at        0001:00000000

 Static symbols

 0001:00003ec0       _ffmt                      00024ec0 f   vsprintf.obj
 0001:00003df0       _SyspSetupSysCallgate      00024df0 f   syscall.obj
 0001:00003e70       _Sysp_SERVICE_CALL_MANAGER 00024e70 f   syscall.obj
 0001:00003210       _PspTaskEntryPoint         00024210 f   process.obj
 0001:000033c0       _PspPushCuttingItem        000243c0 f   process.obj
 0001:00003440       _PspGetNextProcessID       00024440 f   process.obj
 0001:00003470       _PspGetNextThreadID        00024470 f   process.obj
 0001:000034a0       _PspAddNewProcess          000244a0 f   process.obj
 0001:000034f0       _PspAddNewThread           000244f0 f   process.obj
 0001:00003540       _PspCreateSystemProcess    00024540 f   process.obj
 0001:00003700       _PspIdleThread             00024700 f   process.obj
 0001:00003730       _PspProcessCutterThread    00024730 f   process.obj
 0001:00003830       _PspPopCuttingItem         00024830 f   process.obj
 0001:000038b0       _PspThreadCutterThread     000248b0 f   process.obj
 0001:000039b0       _PspSoftTaskSW             000249b0 f   process.obj
 0001:00003a50       _PspSetupTaskSWEnv         00024a50 f   process.obj
 0001:00003ad0       _PspFindNextThreadScheduled 00024ad0 f   process.obj
 0001:00003b90       _Psp_IRQ_SystemTimer       00024b90 f   process.obj
 0001:00002f80       _halt                      00023f80 f   mylysos.obj
 0001:00002ac0       _MmpCheckMemorySize        00023ac0 f   mmanager.obj
 0001:00002b40       _MmpCreateMemPoolBlk       00023b40 f   mmanager.obj
 0001:00002c50       _MmpGetRequiredBlocksFromBytes 00023c50 f   mmanager.obj
 0001:00002db0       _MmpGetPoolAddrFromDescAddr 00023db0 f   mmanager.obj
 0001:00002e80       _MmpGetDescAddrFromPoolAddr 00023e80 f   mmanager.obj
 0001:000025a0       _KbdpTranslatorThread      000235a0 f   kbddrv.obj
 0001:00002760       _KbdpResetIndicator        00023760 f   kbddrv.obj
 0001:000027c0       _KbdpPopRawKeyData         000237c0 f   kbddrv.obj
 0001:00002840       _KbdpPushRawKeyData        00023840 f   kbddrv.obj
 0001:000028c0       _KbdpPopUserKeyData        000238c0 f   kbddrv.obj
 0001:00002950       _KbdpPushUserKeyData       00023950 f   kbddrv.obj
 0001:00001e10       _HshpMainThread            00022e10 f   hshell.obj
 0001:00001f60       _HshpPrintPrompt           00022f60 f   hshell.obj
 0001:00001f80       _HshpParser                00022f80 f   hshell.obj
 0001:000020d0       _Hshp_CMD_toggle           000230d0 f   hshell.obj
 0001:00002110       _Hshp_CMD_cls              00023110 f   hshell.obj
 0001:00002130       _Hshp_CMD_help             00023130 f   hshell.obj
 0001:00002160       _Hshp_CMD_ver              00023160 f   hshell.obj
 0001:00002190       _Hshp_CMD_type             00023190 f   hshell.obj
 0001:00002280       _Hshp_CMD_dir              00023280 f   hshell.obj
 0001:000022f0       _Hshp_dir_callback         000232f0 f   hshell.obj
 0001:00002420       _Hshp_CMD_ps               00023420 f   hshell.obj
 0001:00002450       _Hshp_CMD_free             00023450 f   hshell.obj
 0001:000014f0       _HalpInitializeProcessor   000224f0 f   hal.obj
 0001:000015b0       _HalpEnableA20             000225b0 f   hal.obj
 0001:000016d0       _HalpInitPIC               000226d0 f   hal.obj
 0001:00001770       _HalpInitSysTimer          00022770 f   hal.obj
 0001:000017d0       _Halp_ECT_DivideByZero     000227d0 f   hal.obj
 0001:000017f0       _Halp_ECT_DebugException   000227f0 f   hal.obj
 0001:00001810       _Halp_ECT_NMI              00022810 f   hal.obj
 0001:00001830       _Halp_ECT_Breakpoint       00022830 f   hal.obj
 0001:00001870       _Halp_ECT_INTO             00022870 f   hal.obj
 0001:00001890       _Halp_ECT_BOUNDS           00022890 f   hal.obj
 0001:000018b0       _Halp_ECT_InvaildOpcode    000228b0 f   hal.obj
 0001:000018d0       _Halp_ECT_DeviceNotAvailable 000228d0 f   hal.obj
 0001:000018f0       _Halp_ECT_DoubleFault      000228f0 f   hal.obj
 0001:00001910       _Halp_ECT_CoprocessorOverrun 00022910 f   hal.obj
 0001:00001930       _Halp_ECT_InvalidTSS       00022930 f   hal.obj
 0001:00001950       _Halp_ECT_SegmentNotPresent 00022950 f   hal.obj
 0001:00001970       _Halp_ECT_StackException   00022970 f   hal.obj
 0001:00001990       _Halp_ECT_GeneralProtection 00022990 f   hal.obj
 0001:000019e0       _Halp_ECT_PageFault        000229e0 f   hal.obj
 0001:00001a00       _Halp_ECT_FloatingPointError 00022a00 f   hal.obj
 0001:00001a20       _Halp_ECT_AlignmentCheck   00022a20 f   hal.obj
 0001:00001a40       _Halp_ECT_MachineCheck     00022a40 f   hal.obj
 0001:00001a60       _Halp_IRQ_Keyboard         00022a60 f   hal.obj
 0001:00001aa0       _Halp_IRQ_ReqFromSlave8259 00022aa0 f   hal.obj
 0001:00001ac0       _Halp_IRQ_COM2             00022ac0 f   hal.obj
 0001:00001ae0       _Halp_IRQ_COM1             00022ae0 f   hal.obj
 0001:00001b00       _Halp_IRQ_LPT2             00022b00 f   hal.obj
 0001:00001b20       _Halp_IRQ_FloppyDisk       00022b20 f   hal.obj
 0001:00001b60       _Halp_IRQ_LPT1             00022b60 f   hal.obj
 0001:00001b80       _Halp_IRQ_CMOSClock        00022b80 f   hal.obj
 0001:00001ba0       _Halp_IRQ_VGA              00022ba0 f   hal.obj
 0001:00001bc0       _Halp_IRQ_Mouse            00022bc0 f   hal.obj
 0001:00001be0       _Halp_IRQ_MathCoprocessor  00022be0 f   hal.obj
 0001:00001c00       _Halp_IRQ_HardDrive        00022c00 f   hal.obj
 0001:00001c20       _HalpStartIntService       00022c20 f   hal.obj
 0001:00000c50       _FddpTurnOffMotor          00021c50 f   fdddrv.obj
 0001:00000c80       _FddpJobProcessThread      00021c80 f   fdddrv.obj
 0001:00000ce0       _FddpReadWriteSector       00021ce0 f   fdddrv.obj
 0001:00000eb0       _FddpTurnOnMotor           00021eb0 f   fdddrv.obj
 0001:00000ee0       _FddpWriteFdcData          00021ee0 f   fdddrv.obj
 0001:00000f30       _FddpSetupDMA              00021f30 f   fdddrv.obj
 0001:00000fc0       _FddpPopJobItem            00021fc0 f   fdddrv.obj
 0001:00001100       _FddpPushJobItem           00022100 f   fdddrv.obj
 0001:000008b0       _Fsp_of_callback           000218b0 f   fatfs.obj
 0001:00000ab0       _FspLoadFAT                00021ab0 f   fatfs.obj
 0001:00000ae0       _FspLoadDirEntry           00021ae0 f   fatfs.obj
 0001:00000b10       _FspGetNextCluster         00021b10 f   fatfs.obj
 0001:000000c0       _CrtpPrintfFmt             000210c0 f   6845crt.obj
 0001:00000280       _CrtpGetNextVideoPtr       00021280 f   6845crt.obj
 0001:000002b0       _CrtpGetNextVideoPtrWithPos 000212b0 f   6845crt.obj
 0001:000002e0       _CrtpScrollOneLine         000212e0 f   6845crt.obj
 0001:00000350       _CrtpKeyLF                 00021350 f   6845crt.obj
 0001:000003d0       _CrtpKeyCR                 000213d0 f   6845crt.obj
 0001:00000420       _CrtpKeyBackspace          00021420 f   6845crt.obj
 0001:00000460       _CrtpUpdateCursorPosByPtr  00021460 f   6845crt.obj
 0001:000004b0       _CrtpSetCursorPos          000214b0 f   6845crt.obj
