; Listing generated by Microsoft (R) Optimizing Compiler Version 14.00.50727.42 

	TITLE	c:\Users\상우\Documents\카카오톡 받은 파일\MylysOS\process.c
	.686P
	.XMM
	include listing.inc
	.model	flat

INCLUDELIB MSVCRTD
INCLUDELIB OLDNAMES

PUBLIC	_PsShowTSWachdogClock
_BSS	SEGMENT
_m_bShowTSWatchdogClock DD 01H DUP (?)
; Function compile flags: /Odtp /ZI
; File c:\users\상우\documents\카카오톡 받은 파일\mylysos\process.c
_BSS	ENDS
;	COMDAT _PsShowTSWachdogClock
_TEXT	SEGMENT
_Show$ = 8						; size = 4
_PsShowTSWachdogClock PROC				; COMDAT

; 84   : {

  00000	55		 push	 ebp
  00001	8b ec		 mov	 ebp, esp
  00003	83 ec 40	 sub	 esp, 64			; 00000040H
  00006	53		 push	 ebx
  00007	56		 push	 esi
  00008	57		 push	 edi

; 85   : 	m_bShowTSWatchdogClock = Show;

  00009	8b 45 08	 mov	 eax, DWORD PTR _Show$[ebp]
  0000c	a3 00 00 00 00	 mov	 DWORD PTR _m_bShowTSWatchdogClock, eax

; 86   : 	if(!Show)

  00011	83 7d 08 00	 cmp	 DWORD PTR _Show$[ebp], 0
  00015	75 07		 jne	 SHORT $LN1@PsShowTSWa

; 87   : 		*((BYTE *)TS_WATCHDOG_CLOCK_POS) = ' ';

  00017	c6 05 9e 80 0b
	00 20		 mov	 BYTE PTR ds:753822, 32	; 00000020H
$LN1@PsShowTSWa:

; 88   : 
; 89   : 	return TRUE;

  0001e	b8 01 00 00 00	 mov	 eax, 1

; 90   : }

  00023	5f		 pop	 edi
  00024	5e		 pop	 esi
  00025	5b		 pop	 ebx
  00026	8b e5		 mov	 esp, ebp
  00028	5d		 pop	 ebp
  00029	c3		 ret	 0
_PsShowTSWachdogClock ENDP
_TEXT	ENDS
PUBLIC	??_C@_0CO@KFBIJEKH@PspCreateSystemProcess?$CI?$CJ?5returne@ ; `string'
PUBLIC	_PskInitializeProcessManager
EXTRN	_CrtPrintf:PROC
_BSS	SEGMENT
_m_TickCount DD	01H DUP (?)
_m_ThreadCuttingList DB 07bH DUP (?)
	ALIGN	4

_m_ProcessCuttingList DB 07bH DUP (?)
	ALIGN	4

_m_ProcMgrBlk DB 010H DUP (?)
_BSS	ENDS
;	COMDAT ??_C@_0CO@KFBIJEKH@PspCreateSystemProcess?$CI?$CJ?5returne@
CONST	SEGMENT
??_C@_0CO@KFBIJEKH@PspCreateSystemProcess?$CI?$CJ?5returne@ DB 'PspCreate'
	DB	'SystemProcess() returned an error.', 0dH, 0aH, 00H ; `string'
; Function compile flags: /Odtp /ZI
CONST	ENDS
;	COMDAT _PskInitializeProcessManager
_TEXT	SEGMENT
_PskInitializeProcessManager PROC			; COMDAT

; 93   : {

  00000	55		 push	 ebp
  00001	8b ec		 mov	 ebp, esp
  00003	83 ec 40	 sub	 esp, 64			; 00000040H
  00006	53		 push	 ebx
  00007	56		 push	 esi
  00008	57		 push	 edi

; 94   : 	//모든 변수 초기화
; 95   : 	m_ProcMgrBlk.process_count		= 0;

  00009	c7 05 00 00 00
	00 00 00 00 00	 mov	 DWORD PTR _m_ProcMgrBlk, 0

; 96   : 	m_ProcMgrBlk.next_process_id	= 0;

  00013	c7 05 04 00 00
	00 00 00 00 00	 mov	 DWORD PTR _m_ProcMgrBlk+4, 0

; 97   : 	m_ProcMgrBlk.pt_current_thread	= 0;

  0001d	c7 05 08 00 00
	00 00 00 00 00	 mov	 DWORD PTR _m_ProcMgrBlk+8, 0

; 98   : 	m_ProcMgrBlk.pt_head_process	= NULL;

  00027	c7 05 0c 00 00
	00 00 00 00 00	 mov	 DWORD PTR _m_ProcMgrBlk+12, 0

; 99   : 
; 100  : 	m_ProcessCuttingList.count		= 0;

  00031	c6 05 00 00 00
	00 00		 mov	 BYTE PTR _m_ProcessCuttingList, 0

; 101  : 	m_ProcessCuttingList.head		= 0;

  00038	c6 05 01 00 00
	00 00		 mov	 BYTE PTR _m_ProcessCuttingList+1, 0

; 102  : 	m_ProcessCuttingList.tail		= 0;

  0003f	c6 05 02 00 00
	00 00		 mov	 BYTE PTR _m_ProcessCuttingList+2, 0

; 103  : 
; 104  : 	m_ThreadCuttingList.count		= 0;

  00046	c6 05 00 00 00
	00 00		 mov	 BYTE PTR _m_ThreadCuttingList, 0

; 105  : 	m_ThreadCuttingList.head		= 0;

  0004d	c6 05 01 00 00
	00 00		 mov	 BYTE PTR _m_ThreadCuttingList+1, 0

; 106  : 	m_ThreadCuttingList.tail		= 0;

  00054	c6 05 02 00 00
	00 00		 mov	 BYTE PTR _m_ThreadCuttingList+2, 0

; 107  : 
; 108  : 	m_bShowTSWatchdogClock			= TRUE;

  0005b	c7 05 00 00 00
	00 01 00 00 00	 mov	 DWORD PTR _m_bShowTSWatchdogClock, 1

; 109  : 	m_TickCount						= 0;

  00065	c7 05 00 00 00
	00 00 00 00 00	 mov	 DWORD PTR _m_TickCount, 0

; 110  : 
; 111  : 	if(!PspCreateSystemProcess()) {

  0006f	e8 00 00 00 00	 call	 _PspCreateSystemProcess
  00074	85 c0		 test	 eax, eax
  00076	75 11		 jne	 SHORT $LN1@PskInitial

; 112  : 		DbgPrint("PspCreateSystemProcess() returned an error.\r\n");

  00078	68 00 00 00 00	 push	 OFFSET ??_C@_0CO@KFBIJEKH@PspCreateSystemProcess?$CI?$CJ?5returne@
  0007d	e8 00 00 00 00	 call	 _CrtPrintf
  00082	83 c4 04	 add	 esp, 4

; 113  : 		return FALSE;

  00085	33 c0		 xor	 eax, eax
  00087	eb 05		 jmp	 SHORT $LN2@PskInitial
$LN1@PskInitial:

; 114  : 	}
; 115  : 
; 116  : 	return TRUE;

  00089	b8 01 00 00 00	 mov	 eax, 1
$LN2@PskInitial:

; 117  : }

  0008e	5f		 pop	 edi
  0008f	5e		 pop	 esi
  00090	5b		 pop	 ebx
  00091	8b e5		 mov	 esp, ebp
  00093	5d		 pop	 ebp
  00094	c3		 ret	 0
_PskInitializeProcessManager ENDP
_TEXT	ENDS
PUBLIC	_PsCreateProcess
EXTRN	_MmAllocateNonCachedMemory:PROC
; Function compile flags: /Odtp /ZI
;	COMDAT _PsCreateProcess
_TEXT	SEGMENT
_pProcess$ = -4						; size = 4
_ProcessHandle$ = 8					; size = 4
_PsCreateProcess PROC					; COMDAT

; 137  : {

  00000	55		 push	 ebp
  00001	8b ec		 mov	 ebp, esp
  00003	83 ec 44	 sub	 esp, 68			; 00000044H
  00006	53		 push	 ebx
  00007	56		 push	 esi
  00008	57		 push	 edi

; 138  : 	PPROCESS_CONTROL_BLOCK pProcess;
; 139  : 
; 140  : 	pProcess = MmAllocateNonCachedMemory(sizeof(PROCESS_CONTROL_BLOCK));

  00009	6a 18		 push	 24			; 00000018H
  0000b	e8 00 00 00 00	 call	 _MmAllocateNonCachedMemory
  00010	83 c4 04	 add	 esp, 4
  00013	89 45 fc	 mov	 DWORD PTR _pProcess$[ebp], eax

; 141  : 	if(pProcess == NULL) return FALSE;

  00016	83 7d fc 00	 cmp	 DWORD PTR _pProcess$[ebp], 0
  0001a	75 04		 jne	 SHORT $LN2@PsCreatePr
  0001c	33 c0		 xor	 eax, eax
  0001e	eb 5c		 jmp	 SHORT $LN3@PsCreatePr
$LN2@PsCreatePr:

; 142  : 
; 143  : 	pProcess->process_id		= PspGetNextProcessID();

  00020	e8 00 00 00 00	 call	 _PspGetNextProcessID
  00025	8b 4d fc	 mov	 ecx, DWORD PTR _pProcess$[ebp]
  00028	89 01		 mov	 DWORD PTR [ecx], eax

; 144  : 	pProcess->process_handle	= (HANDLE)pProcess;

  0002a	8b 45 fc	 mov	 eax, DWORD PTR _pProcess$[ebp]
  0002d	8b 4d fc	 mov	 ecx, DWORD PTR _pProcess$[ebp]
  00030	89 48 04	 mov	 DWORD PTR [eax+4], ecx

; 145  : 	pProcess->pt_next_process	= NULL;

  00033	8b 45 fc	 mov	 eax, DWORD PTR _pProcess$[ebp]
  00036	c7 40 08 00 00
	00 00		 mov	 DWORD PTR [eax+8], 0

; 146  : 	pProcess->thread_count		= 0;

  0003d	8b 45 fc	 mov	 eax, DWORD PTR _pProcess$[ebp]
  00040	c7 40 0c 00 00
	00 00		 mov	 DWORD PTR [eax+12], 0

; 147  : 	pProcess->next_thread_id	= 0;

  00047	8b 45 fc	 mov	 eax, DWORD PTR _pProcess$[ebp]
  0004a	c7 40 10 00 00
	00 00		 mov	 DWORD PTR [eax+16], 0

; 148  : 	pProcess->pt_head_thread	= NULL;

  00051	8b 45 fc	 mov	 eax, DWORD PTR _pProcess$[ebp]
  00054	c7 40 14 00 00
	00 00		 mov	 DWORD PTR [eax+20], 0

; 149  : 	if(!PspAddNewProcess((HANDLE)pProcess)) return FALSE;

  0005b	8b 45 fc	 mov	 eax, DWORD PTR _pProcess$[ebp]
  0005e	50		 push	 eax
  0005f	e8 00 00 00 00	 call	 _PspAddNewProcess
  00064	83 c4 04	 add	 esp, 4
  00067	85 c0		 test	 eax, eax
  00069	75 04		 jne	 SHORT $LN1@PsCreatePr
  0006b	33 c0		 xor	 eax, eax
  0006d	eb 0d		 jmp	 SHORT $LN3@PsCreatePr
$LN1@PsCreatePr:

; 150  : 
; 151  : 	*ProcessHandle = pProcess;

  0006f	8b 45 08	 mov	 eax, DWORD PTR _ProcessHandle$[ebp]
  00072	8b 4d fc	 mov	 ecx, DWORD PTR _pProcess$[ebp]
  00075	89 08		 mov	 DWORD PTR [eax], ecx

; 152  : 
; 153  : 	return TRUE;

  00077	b8 01 00 00 00	 mov	 eax, 1
$LN3@PsCreatePr:

; 154  : }

  0007c	5f		 pop	 edi
  0007d	5e		 pop	 esi
  0007e	5b		 pop	 ebx
  0007f	8b e5		 mov	 esp, ebp
  00081	5d		 pop	 ebp
  00082	c3		 ret	 0
_PsCreateProcess ENDP
_TEXT	ENDS
PUBLIC	_PsCreateThread
EXTRN	_HalSetupTSS:PROC
; Function compile flags: /Odtp /ZI
;	COMDAT _PsCreateThread
_TEXT	SEGMENT
_pStack$ = -8						; size = 4
_pThread$ = -4						; size = 4
_ThreadHandle$ = 8					; size = 4
_ProcessHandle$ = 12					; size = 4
_StartRoutine$ = 16					; size = 4
_StartContext$ = 20					; size = 4
_StackSize$ = 24					; size = 4
_AutoDelete$ = 28					; size = 4
_PsCreateThread PROC					; COMDAT

; 159  : {

  00000	55		 push	 ebp
  00001	8b ec		 mov	 ebp, esp
  00003	83 ec 48	 sub	 esp, 72			; 00000048H
  00006	53		 push	 ebx
  00007	56		 push	 esi
  00008	57		 push	 edi

; 160  : 	PTHREAD_CONTROL_BLOCK pThread;
; 161  : 	int *pStack;
; 162  : 	
; 163  : 	//메모리할당
; 164  : 	pThread = MmAllocateNonCachedMemory(sizeof(THREAD_CONTROL_BLOCK));

  00009	68 90 00 00 00	 push	 144			; 00000090H
  0000e	e8 00 00 00 00	 call	 _MmAllocateNonCachedMemory
  00013	83 c4 04	 add	 esp, 4
  00016	89 45 fc	 mov	 DWORD PTR _pThread$[ebp], eax

; 165  : 	if(pThread == NULL) return FALSE;

  00019	83 7d fc 00	 cmp	 DWORD PTR _pThread$[ebp], 0
  0001d	75 07		 jne	 SHORT $LN3@PsCreateTh
  0001f	33 c0		 xor	 eax, eax
  00021	e9 c3 00 00 00	 jmp	 $LN4@PsCreateTh
$LN3@PsCreateTh:

; 166  : 	//쓰레드에서 사용할 스택 할당
; 167  : 	pStack  = MmAllocateNonCachedMemory(StackSize);

  00026	8b 45 18	 mov	 eax, DWORD PTR _StackSize$[ebp]
  00029	50		 push	 eax
  0002a	e8 00 00 00 00	 call	 _MmAllocateNonCachedMemory
  0002f	83 c4 04	 add	 esp, 4
  00032	89 45 f8	 mov	 DWORD PTR _pStack$[ebp], eax

; 168  : 	if(pStack == NULL) return FALSE;

  00035	83 7d f8 00	 cmp	 DWORD PTR _pStack$[ebp], 0
  00039	75 07		 jne	 SHORT $LN2@PsCreateTh
  0003b	33 c0		 xor	 eax, eax
  0003d	e9 a7 00 00 00	 jmp	 $LN4@PsCreateTh
$LN2@PsCreateTh:

; 169  : 
; 170  : 	//부모 프로세스의 핸들 설정
; 171  : 	pThread->parent_process_handle		= ProcessHandle;

  00042	8b 45 fc	 mov	 eax, DWORD PTR _pThread$[ebp]
  00045	8b 4d 0c	 mov	 ecx, DWORD PTR _ProcessHandle$[ebp]
  00048	89 08		 mov	 DWORD PTR [eax], ecx

; 172  : 	//Thread id 및 handle 할당
; 173  : 	pThread->thread_id					= PspGetNextThreadID(ProcessHandle);

  0004a	8b 45 0c	 mov	 eax, DWORD PTR _ProcessHandle$[ebp]
  0004d	50		 push	 eax
  0004e	e8 00 00 00 00	 call	 _PspGetNextThreadID
  00053	83 c4 04	 add	 esp, 4
  00056	8b 4d fc	 mov	 ecx, DWORD PTR _pThread$[ebp]
  00059	89 41 04	 mov	 DWORD PTR [ecx+4], eax

; 174  : 	pThread->thread_handle				= (HANDLE)pThread;

  0005c	8b 45 fc	 mov	 eax, DWORD PTR _pThread$[ebp]
  0005f	8b 4d fc	 mov	 ecx, DWORD PTR _pThread$[ebp]
  00062	89 48 08	 mov	 DWORD PTR [eax+8], ecx

; 175  : 	pThread->thread_status				= THREAD_STATUS_STOP; //Thread 상태를 STOP으로 설정

  00065	8b 45 fc	 mov	 eax, DWORD PTR _pThread$[ebp]
  00068	c7 40 0c 00 00
	00 00		 mov	 DWORD PTR [eax+12], 0

; 176  : 	pThread->auto_delete				= AutoDelete; 

  0006f	8b 45 fc	 mov	 eax, DWORD PTR _pThread$[ebp]
  00072	8b 4d 1c	 mov	 ecx, DWORD PTR _AutoDelete$[ebp]
  00075	89 48 10	 mov	 DWORD PTR [eax+16], ecx

; 177  : 	pThread->pt_next_thread				= NULL;

  00078	8b 45 fc	 mov	 eax, DWORD PTR _pThread$[ebp]
  0007b	c7 40 14 00 00
	00 00		 mov	 DWORD PTR [eax+20], 0

; 178  : 	//쓰레드가 실행해야 하는 함수(StartRoutine), 함수에 넘어가는 인자(StartContext), 스택 사이즈 설정
; 179  : 	pThread->start_routine				= StartRoutine;

  00082	8b 45 fc	 mov	 eax, DWORD PTR _pThread$[ebp]
  00085	8b 4d 10	 mov	 ecx, DWORD PTR _StartRoutine$[ebp]
  00088	89 48 18	 mov	 DWORD PTR [eax+24], ecx

; 180  : 	pThread->start_context				= StartContext;

  0008b	8b 45 fc	 mov	 eax, DWORD PTR _pThread$[ebp]
  0008e	8b 4d 14	 mov	 ecx, DWORD PTR _StartContext$[ebp]
  00091	89 48 1c	 mov	 DWORD PTR [eax+28], ecx

; 181  : 	pThread->pt_stack_base_address		= pStack;

  00094	8b 45 fc	 mov	 eax, DWORD PTR _pThread$[ebp]
  00097	8b 4d f8	 mov	 ecx, DWORD PTR _pStack$[ebp]
  0009a	89 48 20	 mov	 DWORD PTR [eax+32], ecx

; 182  : 	pThread->stack_size					= StackSize;

  0009d	8b 45 fc	 mov	 eax, DWORD PTR _pThread$[ebp]
  000a0	8b 4d 18	 mov	 ecx, DWORD PTR _StackSize$[ebp]
  000a3	89 48 24	 mov	 DWORD PTR [eax+36], ecx

; 183  : 	//PspAddNewThread 함수를 통해 Process에 생성된 쓰레드를 추가
; 184  : 	if(!PspAddNewThread(ProcessHandle, (HANDLE)pThread)) return FALSE;

  000a6	8b 45 fc	 mov	 eax, DWORD PTR _pThread$[ebp]
  000a9	50		 push	 eax
  000aa	8b 4d 0c	 mov	 ecx, DWORD PTR _ProcessHandle$[ebp]
  000ad	51		 push	 ecx
  000ae	e8 00 00 00 00	 call	 _PspAddNewThread
  000b3	83 c4 08	 add	 esp, 8
  000b6	85 c0		 test	 eax, eax
  000b8	75 04		 jne	 SHORT $LN1@PsCreateTh
  000ba	33 c0		 xor	 eax, eax
  000bc	eb 2b		 jmp	 SHORT $LN4@PsCreateTh
$LN1@PsCreateTh:

; 185  : 
; 186  : 	HalSetupTSS(&pThread->thread_tss32, TRUE, (int)PspTaskEntryPoint, pStack, StackSize);

  000be	8b 45 18	 mov	 eax, DWORD PTR _StackSize$[ebp]
  000c1	50		 push	 eax
  000c2	8b 4d f8	 mov	 ecx, DWORD PTR _pStack$[ebp]
  000c5	51		 push	 ecx
  000c6	68 00 00 00 00	 push	 OFFSET _PspTaskEntryPoint
  000cb	6a 01		 push	 1
  000cd	8b 55 fc	 mov	 edx, DWORD PTR _pThread$[ebp]
  000d0	83 c2 28	 add	 edx, 40			; 00000028H
  000d3	52		 push	 edx
  000d4	e8 00 00 00 00	 call	 _HalSetupTSS
  000d9	83 c4 14	 add	 esp, 20			; 00000014H

; 187  : 
; 188  : 	*ThreadHandle = pThread;

  000dc	8b 45 08	 mov	 eax, DWORD PTR _ThreadHandle$[ebp]
  000df	8b 4d fc	 mov	 ecx, DWORD PTR _pThread$[ebp]
  000e2	89 08		 mov	 DWORD PTR [eax], ecx

; 189  : 
; 190  : 	return TRUE;

  000e4	b8 01 00 00 00	 mov	 eax, 1
$LN4@PsCreateTh:

; 191  : }

  000e9	5f		 pop	 edi
  000ea	5e		 pop	 esi
  000eb	5b		 pop	 ebx
  000ec	8b e5		 mov	 esp, ebp
  000ee	5d		 pop	 ebp
  000ef	c3		 ret	 0
_PsCreateThread ENDP
_TEXT	ENDS
PUBLIC	_PsGetCurrentThread
EXTRN	_HalTaskSwitch:PROC
; Function compile flags: /Odtp /ZI
;	COMDAT _PspTaskEntryPoint
_TEXT	SEGMENT
_ret_value$ = -12					; size = 4
_current_thread$ = -8					; size = 4
_start_routine$ = -4					; size = 4
_PspTaskEntryPoint PROC					; COMDAT

; 120  : {

  00000	55		 push	 ebp
  00001	8b ec		 mov	 ebp, esp
  00003	83 ec 4c	 sub	 esp, 76			; 0000004cH
  00006	53		 push	 ebx
  00007	56		 push	 esi
  00008	57		 push	 edi

; 121  : 	PKSTART_ROUTINE start_routine;
; 122  : 	HANDLE current_thread;
; 123  : 	DWORD ret_value;
; 124  : 
; 125  : 	current_thread = PsGetCurrentThread();

  00009	e8 00 00 00 00	 call	 _PsGetCurrentThread
  0000e	89 45 f8	 mov	 DWORD PTR _current_thread$[ebp], eax

; 126  : 	start_routine = PsGetThreadPtr(current_thread)->start_routine;

  00011	8b 45 f8	 mov	 eax, DWORD PTR _current_thread$[ebp]
  00014	8b 48 18	 mov	 ecx, DWORD PTR [eax+24]
  00017	89 4d fc	 mov	 DWORD PTR _start_routine$[ebp], ecx

; 127  : 	ret_value = start_routine(PsGetThreadPtr(current_thread)->start_context);

  0001a	8b 45 f8	 mov	 eax, DWORD PTR _current_thread$[ebp]
  0001d	8b 48 1c	 mov	 ecx, DWORD PTR [eax+28]
  00020	51		 push	 ecx
  00021	ff 55 fc	 call	 DWORD PTR _start_routine$[ebp]
  00024	83 c4 04	 add	 esp, 4
  00027	89 45 f4	 mov	 DWORD PTR _ret_value$[ebp], eax

; 128  : 
; 129  : 	PsGetThreadPtr(current_thread)->thread_status = THREAD_STATUS_TERMINATED;

  0002a	8b 45 f8	 mov	 eax, DWORD PTR _current_thread$[ebp]
  0002d	c7 40 0c 01 00
	00 00		 mov	 DWORD PTR [eax+12], 1

; 130  : 	HalTaskSwitch();

  00034	e8 00 00 00 00	 call	 _HalTaskSwitch
$LN2@PspTaskEnt:

; 131  : 
; 132  : 	while(1) ;

  00039	b8 01 00 00 00	 mov	 eax, 1
  0003e	85 c0		 test	 eax, eax
  00040	74 02		 je	 SHORT $LN3@PspTaskEnt
  00042	eb f5		 jmp	 SHORT $LN2@PspTaskEnt
$LN3@PspTaskEnt:

; 133  : }

  00044	5f		 pop	 edi
  00045	5e		 pop	 esi
  00046	5b		 pop	 ebx
  00047	8b e5		 mov	 esp, ebp
  00049	5d		 pop	 ebp
  0004a	c3		 ret	 0
_PspTaskEntryPoint ENDP
_TEXT	ENDS
PUBLIC	_PsCreateIntThread
; Function compile flags: /Odtp /ZI
;	COMDAT _PsCreateIntThread
_TEXT	SEGMENT
_pStack$ = -8						; size = 4
_pThread$ = -4						; size = 4
_ThreadHandle$ = 8					; size = 4
_ProcessHandle$ = 12					; size = 4
_StartRoutine$ = 16					; size = 4
_StartContext$ = 20					; size = 4
_StackSize$ = 24					; size = 4
_PsCreateIntThread PROC					; COMDAT

; 194  : {

  00000	55		 push	 ebp
  00001	8b ec		 mov	 ebp, esp
  00003	83 ec 48	 sub	 esp, 72			; 00000048H
  00006	53		 push	 ebx
  00007	56		 push	 esi
  00008	57		 push	 edi

; 195  : 	PTHREAD_CONTROL_BLOCK pThread;
; 196  : 	int *pStack;
; 197  : 
; 198  : 	pThread = MmAllocateNonCachedMemory(sizeof(THREAD_CONTROL_BLOCK));

  00009	68 90 00 00 00	 push	 144			; 00000090H
  0000e	e8 00 00 00 00	 call	 _MmAllocateNonCachedMemory
  00013	83 c4 04	 add	 esp, 4
  00016	89 45 fc	 mov	 DWORD PTR _pThread$[ebp], eax

; 199  : 	if(pThread == NULL) return FALSE;

  00019	83 7d fc 00	 cmp	 DWORD PTR _pThread$[ebp], 0
  0001d	75 07		 jne	 SHORT $LN3@PsCreateIn
  0001f	33 c0		 xor	 eax, eax
  00021	e9 c3 00 00 00	 jmp	 $LN4@PsCreateIn
$LN3@PsCreateIn:

; 200  : 	pStack  = MmAllocateNonCachedMemory(StackSize);

  00026	8b 45 18	 mov	 eax, DWORD PTR _StackSize$[ebp]
  00029	50		 push	 eax
  0002a	e8 00 00 00 00	 call	 _MmAllocateNonCachedMemory
  0002f	83 c4 04	 add	 esp, 4
  00032	89 45 f8	 mov	 DWORD PTR _pStack$[ebp], eax

; 201  : 	if(pStack == NULL) return FALSE;

  00035	83 7d f8 00	 cmp	 DWORD PTR _pStack$[ebp], 0
  00039	75 07		 jne	 SHORT $LN2@PsCreateIn
  0003b	33 c0		 xor	 eax, eax
  0003d	e9 a7 00 00 00	 jmp	 $LN4@PsCreateIn
$LN2@PsCreateIn:

; 202  : 
; 203  : 	pThread->parent_process_handle		= ProcessHandle;

  00042	8b 45 fc	 mov	 eax, DWORD PTR _pThread$[ebp]
  00045	8b 4d 0c	 mov	 ecx, DWORD PTR _ProcessHandle$[ebp]
  00048	89 08		 mov	 DWORD PTR [eax], ecx

; 204  : 	pThread->thread_id					= PspGetNextThreadID(ProcessHandle);

  0004a	8b 45 0c	 mov	 eax, DWORD PTR _ProcessHandle$[ebp]
  0004d	50		 push	 eax
  0004e	e8 00 00 00 00	 call	 _PspGetNextThreadID
  00053	83 c4 04	 add	 esp, 4
  00056	8b 4d fc	 mov	 ecx, DWORD PTR _pThread$[ebp]
  00059	89 41 04	 mov	 DWORD PTR [ecx+4], eax

; 205  : 	pThread->thread_handle				= (HANDLE)pThread;

  0005c	8b 45 fc	 mov	 eax, DWORD PTR _pThread$[ebp]
  0005f	8b 4d fc	 mov	 ecx, DWORD PTR _pThread$[ebp]
  00062	89 48 08	 mov	 DWORD PTR [eax+8], ecx

; 206  : 	pThread->thread_status				= THREAD_STATUS_STOP;

  00065	8b 45 fc	 mov	 eax, DWORD PTR _pThread$[ebp]
  00068	c7 40 0c 00 00
	00 00		 mov	 DWORD PTR [eax+12], 0

; 207  : 	//PsCreateThread함수와 다르게 auto_delete가 false
; 208  : 	pThread->auto_delete				= FALSE;

  0006f	8b 45 fc	 mov	 eax, DWORD PTR _pThread$[ebp]
  00072	c7 40 10 00 00
	00 00		 mov	 DWORD PTR [eax+16], 0

; 209  : 	pThread->pt_next_thread				= NULL;

  00079	8b 45 fc	 mov	 eax, DWORD PTR _pThread$[ebp]
  0007c	c7 40 14 00 00
	00 00		 mov	 DWORD PTR [eax+20], 0

; 210  : 	//PsCreateThread함수와 다르게 argument의 StartRoutine을 바로 할당
; 211  : 	pThread->start_routine				= StartRoutine;

  00083	8b 45 fc	 mov	 eax, DWORD PTR _pThread$[ebp]
  00086	8b 4d 10	 mov	 ecx, DWORD PTR _StartRoutine$[ebp]
  00089	89 48 18	 mov	 DWORD PTR [eax+24], ecx

; 212  : 	pThread->start_context				= StartContext;

  0008c	8b 45 fc	 mov	 eax, DWORD PTR _pThread$[ebp]
  0008f	8b 4d 14	 mov	 ecx, DWORD PTR _StartContext$[ebp]
  00092	89 48 1c	 mov	 DWORD PTR [eax+28], ecx

; 213  : 	pThread->pt_stack_base_address		= pStack;

  00095	8b 45 fc	 mov	 eax, DWORD PTR _pThread$[ebp]
  00098	8b 4d f8	 mov	 ecx, DWORD PTR _pStack$[ebp]
  0009b	89 48 20	 mov	 DWORD PTR [eax+32], ecx

; 214  : 	pThread->stack_size					= StackSize;

  0009e	8b 45 fc	 mov	 eax, DWORD PTR _pThread$[ebp]
  000a1	8b 4d 18	 mov	 ecx, DWORD PTR _StackSize$[ebp]
  000a4	89 48 24	 mov	 DWORD PTR [eax+36], ecx

; 215  : 	if(!PspAddNewThread(ProcessHandle, (HANDLE)pThread)) return FALSE;

  000a7	8b 45 fc	 mov	 eax, DWORD PTR _pThread$[ebp]
  000aa	50		 push	 eax
  000ab	8b 4d 0c	 mov	 ecx, DWORD PTR _ProcessHandle$[ebp]
  000ae	51		 push	 ecx
  000af	e8 00 00 00 00	 call	 _PspAddNewThread
  000b4	83 c4 08	 add	 esp, 8
  000b7	85 c0		 test	 eax, eax
  000b9	75 04		 jne	 SHORT $LN1@PsCreateIn
  000bb	33 c0		 xor	 eax, eax
  000bd	eb 2a		 jmp	 SHORT $LN4@PsCreateIn
$LN1@PsCreateIn:

; 216  : 
; 217  : 	HalSetupTSS(&pThread->thread_tss32, TRUE, (int)StartRoutine, pStack, StackSize);

  000bf	8b 45 18	 mov	 eax, DWORD PTR _StackSize$[ebp]
  000c2	50		 push	 eax
  000c3	8b 4d f8	 mov	 ecx, DWORD PTR _pStack$[ebp]
  000c6	51		 push	 ecx
  000c7	8b 55 10	 mov	 edx, DWORD PTR _StartRoutine$[ebp]
  000ca	52		 push	 edx
  000cb	6a 01		 push	 1
  000cd	8b 45 fc	 mov	 eax, DWORD PTR _pThread$[ebp]
  000d0	83 c0 28	 add	 eax, 40			; 00000028H
  000d3	50		 push	 eax
  000d4	e8 00 00 00 00	 call	 _HalSetupTSS
  000d9	83 c4 14	 add	 esp, 20			; 00000014H

; 218  : 
; 219  : 	*ThreadHandle = pThread;

  000dc	8b 45 08	 mov	 eax, DWORD PTR _ThreadHandle$[ebp]
  000df	8b 4d fc	 mov	 ecx, DWORD PTR _pThread$[ebp]
  000e2	89 08		 mov	 DWORD PTR [eax], ecx

; 220  : 
; 221  : 	return TRUE;

  000e4	b8 01 00 00 00	 mov	 eax, 1
$LN4@PsCreateIn:

; 222  : }

  000e9	5f		 pop	 edi
  000ea	5e		 pop	 esi
  000eb	5b		 pop	 ebx
  000ec	8b e5		 mov	 esp, ebp
  000ee	5d		 pop	 ebp
  000ef	c3		 ret	 0
_PsCreateIntThread ENDP
_TEXT	ENDS
PUBLIC	_PsSetThreadStatus
; Function compile flags: /Odtp /ZI
;	COMDAT _PsSetThreadStatus
_TEXT	SEGMENT
_ThreadHandle$ = 8					; size = 4
_Status$ = 12						; size = 4
_PsSetThreadStatus PROC					; COMDAT

; 225  : {

  00000	55		 push	 ebp
  00001	8b ec		 mov	 ebp, esp
  00003	83 ec 40	 sub	 esp, 64			; 00000040H
  00006	53		 push	 ebx
  00007	56		 push	 esi
  00008	57		 push	 edi

; 226  : 	PsGetThreadPtr(ThreadHandle)->thread_status = Status;

  00009	8b 45 08	 mov	 eax, DWORD PTR _ThreadHandle$[ebp]
  0000c	8b 4d 0c	 mov	 ecx, DWORD PTR _Status$[ebp]
  0000f	89 48 0c	 mov	 DWORD PTR [eax+12], ecx

; 227  : 
; 228  : 	return TRUE;

  00012	b8 01 00 00 00	 mov	 eax, 1

; 229  : }

  00017	5f		 pop	 edi
  00018	5e		 pop	 esi
  00019	5b		 pop	 ebx
  0001a	8b e5		 mov	 esp, ebp
  0001c	5d		 pop	 ebp
  0001d	c3		 ret	 0
_PsSetThreadStatus ENDP
; Function compile flags: /Odtp /ZI
_TEXT	ENDS
;	COMDAT _PsGetCurrentThread
_TEXT	SEGMENT
_thread$ = -4						; size = 4
_PsGetCurrentThread PROC				; COMDAT

; 233  : {

  00000	55		 push	 ebp
  00001	8b ec		 mov	 ebp, esp
  00003	83 ec 44	 sub	 esp, 68			; 00000044H
  00006	53		 push	 ebx
  00007	56		 push	 esi
  00008	57		 push	 edi

; 234  : 	HANDLE thread;
; 235  : 
; 236  : ENTER_CRITICAL_SECTION();

  00009	9c		 pushfd
  0000a	fa		 cli

; 237  : 	thread = (HANDLE)(m_ProcMgrBlk.pt_current_thread);

  0000b	a1 08 00 00 00	 mov	 eax, DWORD PTR _m_ProcMgrBlk+8
  00010	89 45 fc	 mov	 DWORD PTR _thread$[ebp], eax

; 238  : EXIT_CRITICAL_SECTION();

  00013	9d		 popfd

; 239  : 
; 240  : 	return thread;

  00014	8b 45 fc	 mov	 eax, DWORD PTR _thread$[ebp]

; 241  : }

  00017	5f		 pop	 edi
  00018	5e		 pop	 esi
  00019	5b		 pop	 ebx
  0001a	8b e5		 mov	 esp, ebp
  0001c	5d		 pop	 ebp
  0001d	c3		 ret	 0
_PsGetCurrentThread ENDP
_TEXT	ENDS
PUBLIC	_PsDeleteThread
; Function compile flags: /Odtp /ZI
;	COMDAT _PsDeleteThread
_TEXT	SEGMENT
_ThreadHandle$ = 8					; size = 4
_PsDeleteThread PROC					; COMDAT

; 245  : {

  00000	55		 push	 ebp
  00001	8b ec		 mov	 ebp, esp
  00003	83 ec 40	 sub	 esp, 64			; 00000040H
  00006	53		 push	 ebx
  00007	56		 push	 esi
  00008	57		 push	 edi

; 246  : 	return PspPushCuttingItem(&m_ThreadCuttingList, ThreadHandle);

  00009	8b 45 08	 mov	 eax, DWORD PTR _ThreadHandle$[ebp]
  0000c	50		 push	 eax
  0000d	68 00 00 00 00	 push	 OFFSET _m_ThreadCuttingList
  00012	e8 00 00 00 00	 call	 _PspPushCuttingItem
  00017	83 c4 08	 add	 esp, 8

; 247  : }

  0001a	5f		 pop	 edi
  0001b	5e		 pop	 esi
  0001c	5b		 pop	 ebx
  0001d	8b e5		 mov	 esp, ebp
  0001f	5d		 pop	 ebp
  00020	c3		 ret	 0
_PsDeleteThread ENDP
; Function compile flags: /Odtp /ZI
_TEXT	ENDS
;	COMDAT _PspPushCuttingItem
_TEXT	SEGMENT
_bResult$ = -4						; size = 4
_pCuttingList$ = 8					; size = 4
_Item$ = 12						; size = 4
_PspPushCuttingItem PROC				; COMDAT

; 272  : {

  00000	55		 push	 ebp
  00001	8b ec		 mov	 ebp, esp
  00003	83 ec 44	 sub	 esp, 68			; 00000044H
  00006	53		 push	 ebx
  00007	56		 push	 esi
  00008	57		 push	 edi

; 273  : 	BOOL bResult = TRUE;

  00009	c7 45 fc 01 00
	00 00		 mov	 DWORD PTR _bResult$[ebp], 1

; 274  : 
; 275  : ENTER_CRITICAL_SECTION();

  00010	9c		 pushfd
  00011	fa		 cli

; 276  : 	{
; 277  : 		if(pCuttingList->count >= MAX_CUTTING_ITEM) {

  00012	8b 45 08	 mov	 eax, DWORD PTR _pCuttingList$[ebp]
  00015	0f b6 08	 movzx	 ecx, BYTE PTR [eax]
  00018	83 f9 1e	 cmp	 ecx, 30			; 0000001eH
  0001b	7c 09		 jl	 SHORT $LN2@PspPushCut

; 278  : 			bResult = FALSE;

  0001d	c7 45 fc 00 00
	00 00		 mov	 DWORD PTR _bResult$[ebp], 0

; 279  : 			goto $exit;

  00024	eb 40		 jmp	 SHORT $$exit$1107
$LN2@PspPushCut:

; 280  : 		}
; 281  : 
; 282  : 		pCuttingList->count++;

  00026	8b 45 08	 mov	 eax, DWORD PTR _pCuttingList$[ebp]
  00029	8a 08		 mov	 cl, BYTE PTR [eax]
  0002b	80 c1 01	 add	 cl, 1
  0002e	8b 55 08	 mov	 edx, DWORD PTR _pCuttingList$[ebp]
  00031	88 0a		 mov	 BYTE PTR [edx], cl

; 283  : 		pCuttingList->handle_list[pCuttingList->tail++] = Item;

  00033	8b 45 08	 mov	 eax, DWORD PTR _pCuttingList$[ebp]
  00036	0f b6 48 02	 movzx	 ecx, BYTE PTR [eax+2]
  0003a	8b 55 08	 mov	 edx, DWORD PTR _pCuttingList$[ebp]
  0003d	8b 45 0c	 mov	 eax, DWORD PTR _Item$[ebp]
  00040	89 44 8a 03	 mov	 DWORD PTR [edx+ecx*4+3], eax
  00044	8b 4d 08	 mov	 ecx, DWORD PTR _pCuttingList$[ebp]
  00047	8a 51 02	 mov	 dl, BYTE PTR [ecx+2]
  0004a	80 c2 01	 add	 dl, 1
  0004d	8b 45 08	 mov	 eax, DWORD PTR _pCuttingList$[ebp]
  00050	88 50 02	 mov	 BYTE PTR [eax+2], dl

; 284  : 		if(pCuttingList->tail >= MAX_CUTTING_ITEM)

  00053	8b 45 08	 mov	 eax, DWORD PTR _pCuttingList$[ebp]
  00056	0f b6 48 02	 movzx	 ecx, BYTE PTR [eax+2]
  0005a	83 f9 1e	 cmp	 ecx, 30			; 0000001eH
  0005d	7c 07		 jl	 SHORT $$exit$1107

; 285  : 			pCuttingList->tail = 0;

  0005f	8b 45 08	 mov	 eax, DWORD PTR _pCuttingList$[ebp]
  00062	c6 40 02 00	 mov	 BYTE PTR [eax+2], 0
$$exit$1107:

; 286  : 	}
; 287  : $exit:
; 288  : EXIT_CRITICAL_SECTION();

  00066	9d		 popfd

; 289  : 	return bResult;

  00067	8b 45 fc	 mov	 eax, DWORD PTR _bResult$[ebp]

; 290  : }

  0006a	5f		 pop	 edi
  0006b	5e		 pop	 esi
  0006c	5b		 pop	 ebx
  0006d	8b e5		 mov	 esp, ebp
  0006f	5d		 pop	 ebp
  00070	c3		 ret	 0
_PspPushCuttingItem ENDP
; Function compile flags: /Odtp /ZI
_TEXT	ENDS
;	COMDAT _PspGetNextProcessID
_TEXT	SEGMENT
_process_id$ = -4					; size = 4
_PspGetNextProcessID PROC				; COMDAT

; 295  : {

  00000	55		 push	 ebp
  00001	8b ec		 mov	 ebp, esp
  00003	83 ec 44	 sub	 esp, 68			; 00000044H
  00006	53		 push	 ebx
  00007	56		 push	 esi
  00008	57		 push	 edi

; 296  : 	DWORD process_id;
; 297  : 
; 298  : ENTER_CRITICAL_SECTION();

  00009	9c		 pushfd
  0000a	fa		 cli

; 299  : 	process_id = m_ProcMgrBlk.next_process_id++;

  0000b	a1 04 00 00 00	 mov	 eax, DWORD PTR _m_ProcMgrBlk+4
  00010	89 45 fc	 mov	 DWORD PTR _process_id$[ebp], eax
  00013	8b 0d 04 00 00
	00		 mov	 ecx, DWORD PTR _m_ProcMgrBlk+4
  00019	83 c1 01	 add	 ecx, 1
  0001c	89 0d 04 00 00
	00		 mov	 DWORD PTR _m_ProcMgrBlk+4, ecx

; 300  : EXIT_CRITICAL_SECTION();

  00022	9d		 popfd

; 301  : 
; 302  : 	return process_id;

  00023	8b 45 fc	 mov	 eax, DWORD PTR _process_id$[ebp]

; 303  : }

  00026	5f		 pop	 edi
  00027	5e		 pop	 esi
  00028	5b		 pop	 ebx
  00029	8b e5		 mov	 esp, ebp
  0002b	5d		 pop	 ebp
  0002c	c3		 ret	 0
_PspGetNextProcessID ENDP
; Function compile flags: /Odtp /ZI
_TEXT	ENDS
;	COMDAT _PspGetNextThreadID
_TEXT	SEGMENT
_thread_id$ = -4					; size = 4
_ProcessHandle$ = 8					; size = 4
_PspGetNextThreadID PROC				; COMDAT

; 307  : {

  00000	55		 push	 ebp
  00001	8b ec		 mov	 ebp, esp
  00003	83 ec 44	 sub	 esp, 68			; 00000044H
  00006	53		 push	 ebx
  00007	56		 push	 esi
  00008	57		 push	 edi

; 308  : 	DWORD thread_id;
; 309  : 
; 310  : ENTER_CRITICAL_SECTION();

  00009	9c		 pushfd
  0000a	fa		 cli

; 311  : 	thread_id = PsGetProcessPtr(ProcessHandle)->next_thread_id++;

  0000b	8b 45 08	 mov	 eax, DWORD PTR _ProcessHandle$[ebp]
  0000e	8b 48 10	 mov	 ecx, DWORD PTR [eax+16]
  00011	89 4d fc	 mov	 DWORD PTR _thread_id$[ebp], ecx
  00014	8b 55 08	 mov	 edx, DWORD PTR _ProcessHandle$[ebp]
  00017	8b 42 10	 mov	 eax, DWORD PTR [edx+16]
  0001a	83 c0 01	 add	 eax, 1
  0001d	8b 4d 08	 mov	 ecx, DWORD PTR _ProcessHandle$[ebp]
  00020	89 41 10	 mov	 DWORD PTR [ecx+16], eax

; 312  : EXIT_CRITICAL_SECTION();

  00023	9d		 popfd

; 313  : 
; 314  : 	return thread_id;

  00024	8b 45 fc	 mov	 eax, DWORD PTR _thread_id$[ebp]

; 315  : }

  00027	5f		 pop	 edi
  00028	5e		 pop	 esi
  00029	5b		 pop	 ebx
  0002a	8b e5		 mov	 esp, ebp
  0002c	5d		 pop	 ebp
  0002d	c3		 ret	 0
_PspGetNextThreadID ENDP
; Function compile flags: /Odtp /ZI
_TEXT	ENDS
;	COMDAT _PspAddNewProcess
_TEXT	SEGMENT
_pt_next_process$ = -4					; size = 4
_ProcessHandle$ = 8					; size = 4
_PspAddNewProcess PROC					; COMDAT

; 319  : {

  00000	55		 push	 ebp
  00001	8b ec		 mov	 ebp, esp
  00003	83 ec 44	 sub	 esp, 68			; 00000044H
  00006	53		 push	 ebx
  00007	56		 push	 esi
  00008	57		 push	 edi

; 320  : 	PPROCESS_CONTROL_BLOCK *pt_next_process;
; 321  : 
; 322  : ENTER_CRITICAL_SECTION();

  00009	9c		 pushfd
  0000a	fa		 cli

; 323  : 	pt_next_process = &m_ProcMgrBlk.pt_head_process;

  0000b	c7 45 fc 0c 00
	00 00		 mov	 DWORD PTR _pt_next_process$[ebp], OFFSET _m_ProcMgrBlk+12
$LN2@PspAddNewP:

; 324  : 	while(*pt_next_process)

  00012	8b 45 fc	 mov	 eax, DWORD PTR _pt_next_process$[ebp]
  00015	83 38 00	 cmp	 DWORD PTR [eax], 0
  00018	74 0d		 je	 SHORT $LN1@PspAddNewP

; 325  : 		pt_next_process = &(*pt_next_process)->pt_next_process;

  0001a	8b 45 fc	 mov	 eax, DWORD PTR _pt_next_process$[ebp]
  0001d	8b 08		 mov	 ecx, DWORD PTR [eax]
  0001f	83 c1 08	 add	 ecx, 8
  00022	89 4d fc	 mov	 DWORD PTR _pt_next_process$[ebp], ecx
  00025	eb eb		 jmp	 SHORT $LN2@PspAddNewP
$LN1@PspAddNewP:

; 326  : 	*pt_next_process = PsGetProcessPtr(ProcessHandle);

  00027	8b 45 fc	 mov	 eax, DWORD PTR _pt_next_process$[ebp]
  0002a	8b 4d 08	 mov	 ecx, DWORD PTR _ProcessHandle$[ebp]
  0002d	89 08		 mov	 DWORD PTR [eax], ecx

; 327  : 	m_ProcMgrBlk.process_count++;

  0002f	a1 00 00 00 00	 mov	 eax, DWORD PTR _m_ProcMgrBlk
  00034	83 c0 01	 add	 eax, 1
  00037	a3 00 00 00 00	 mov	 DWORD PTR _m_ProcMgrBlk, eax

; 328  : EXIT_CRITICAL_SECTION();

  0003c	9d		 popfd

; 329  : 
; 330  : 	return TRUE;

  0003d	b8 01 00 00 00	 mov	 eax, 1

; 331  : }

  00042	5f		 pop	 edi
  00043	5e		 pop	 esi
  00044	5b		 pop	 ebx
  00045	8b e5		 mov	 esp, ebp
  00047	5d		 pop	 ebp
  00048	c3		 ret	 0
_PspAddNewProcess ENDP
; Function compile flags: /Odtp /ZI
_TEXT	ENDS
;	COMDAT _PspAddNewThread
_TEXT	SEGMENT
_pt_next_thread$ = -4					; size = 4
_ProcessHandle$ = 8					; size = 4
_ThreadHandle$ = 12					; size = 4
_PspAddNewThread PROC					; COMDAT

; 335  : {

  00000	55		 push	 ebp
  00001	8b ec		 mov	 ebp, esp
  00003	83 ec 44	 sub	 esp, 68			; 00000044H
  00006	53		 push	 ebx
  00007	56		 push	 esi
  00008	57		 push	 edi

; 336  : 	PTHREAD_CONTROL_BLOCK *pt_next_thread;
; 337  : 
; 338  : ENTER_CRITICAL_SECTION();

  00009	9c		 pushfd
  0000a	fa		 cli

; 339  : 	pt_next_thread = &PsGetProcessPtr(ProcessHandle)->pt_head_thread;

  0000b	8b 45 08	 mov	 eax, DWORD PTR _ProcessHandle$[ebp]
  0000e	83 c0 14	 add	 eax, 20			; 00000014H
  00011	89 45 fc	 mov	 DWORD PTR _pt_next_thread$[ebp], eax
$LN2@PspAddNewT:

; 340  : 	while(*pt_next_thread)

  00014	8b 45 fc	 mov	 eax, DWORD PTR _pt_next_thread$[ebp]
  00017	83 38 00	 cmp	 DWORD PTR [eax], 0
  0001a	74 0d		 je	 SHORT $LN1@PspAddNewT

; 341  : 		pt_next_thread = &(*pt_next_thread)->pt_next_thread;

  0001c	8b 45 fc	 mov	 eax, DWORD PTR _pt_next_thread$[ebp]
  0001f	8b 08		 mov	 ecx, DWORD PTR [eax]
  00021	83 c1 14	 add	 ecx, 20			; 00000014H
  00024	89 4d fc	 mov	 DWORD PTR _pt_next_thread$[ebp], ecx
  00027	eb eb		 jmp	 SHORT $LN2@PspAddNewT
$LN1@PspAddNewT:

; 342  : 	*pt_next_thread = PsGetThreadPtr(ThreadHandle);

  00029	8b 45 fc	 mov	 eax, DWORD PTR _pt_next_thread$[ebp]
  0002c	8b 4d 0c	 mov	 ecx, DWORD PTR _ThreadHandle$[ebp]
  0002f	89 08		 mov	 DWORD PTR [eax], ecx

; 343  : 	PsGetProcessPtr(ProcessHandle)->thread_count++;

  00031	8b 45 08	 mov	 eax, DWORD PTR _ProcessHandle$[ebp]
  00034	8b 48 0c	 mov	 ecx, DWORD PTR [eax+12]
  00037	83 c1 01	 add	 ecx, 1
  0003a	8b 55 08	 mov	 edx, DWORD PTR _ProcessHandle$[ebp]
  0003d	89 4a 0c	 mov	 DWORD PTR [edx+12], ecx

; 344  : EXIT_CRITICAL_SECTION();

  00040	9d		 popfd

; 345  : 
; 346  : 	return TRUE;

  00041	b8 01 00 00 00	 mov	 eax, 1

; 347  : }

  00046	5f		 pop	 edi
  00047	5e		 pop	 esi
  00048	5b		 pop	 ebx
  00049	8b e5		 mov	 esp, ebp
  0004b	5d		 pop	 ebp
  0004c	c3		 ret	 0
_PspAddNewThread ENDP
_TEXT	ENDS
EXTRN	_HalWriteTssIntoGdt:PROC
EXTRN	_HalSetupTaskLink:PROC
; Function compile flags: /Odtp /ZI
;	COMDAT _PspCreateSystemProcess
_TEXT	SEGMENT
_sw_task_sw_handle$ = -28				; size = 4
_tmr_thread_handle$ = -24				; size = 4
_thread_cutter_handle$ = -20				; size = 4
_process_cutter_handle$ = -16				; size = 4
_idle_thread_handle$ = -12				; size = 4
_init_thread_handle$ = -8				; size = 4
_process_handle$ = -4					; size = 4
_PspCreateSystemProcess PROC				; COMDAT

; 556  : {

  00000	55		 push	 ebp
  00001	8b ec		 mov	 ebp, esp
  00003	83 ec 5c	 sub	 esp, 92			; 0000005cH
  00006	53		 push	 ebx
  00007	56		 push	 esi
  00008	57		 push	 edi

; 557  : 	HANDLE process_handle;
; 558  : 	HANDLE init_thread_handle, idle_thread_handle, process_cutter_handle, thread_cutter_handle;
; 559  : 	HANDLE tmr_thread_handle, sw_task_sw_handle;
; 560  : 
; 561  : 	//메인 프로세스를 생성해주는 PSCreateProcess 함수 호출
; 562  : 	if(!PsCreateProcess(&process_handle)) 

  00009	8d 45 fc	 lea	 eax, DWORD PTR _process_handle$[ebp]
  0000c	50		 push	 eax
  0000d	e8 00 00 00 00	 call	 _PsCreateProcess
  00012	83 c4 04	 add	 esp, 4
  00015	85 c0		 test	 eax, eax
  00017	75 07		 jne	 SHORT $LN7@PspCreateS

; 563  : 		return FALSE;

  00019	33 c0		 xor	 eax, eax
  0001b	e9 90 01 00 00	 jmp	 $LN8@PspCreateS
$LN7@PspCreateS:

; 564  : 
; 565  : 	//프로세스를 생성하기 위해 베이스가 될 메인 쓰레드(init 쓰레드) 생성 
; 566  : 	if(!PsCreateThread(&init_thread_handle, process_handle, NULL, NULL, DEFAULT_STACK_SIZE, FALSE)) 

  00020	6a 00		 push	 0
  00022	68 00 00 01 00	 push	 65536			; 00010000H
  00027	6a 00		 push	 0
  00029	6a 00		 push	 0
  0002b	8b 45 fc	 mov	 eax, DWORD PTR _process_handle$[ebp]
  0002e	50		 push	 eax
  0002f	8d 4d f8	 lea	 ecx, DWORD PTR _init_thread_handle$[ebp]
  00032	51		 push	 ecx
  00033	e8 00 00 00 00	 call	 _PsCreateThread
  00038	83 c4 18	 add	 esp, 24			; 00000018H
  0003b	85 c0		 test	 eax, eax
  0003d	75 07		 jne	 SHORT $LN6@PspCreateS

; 567  : 		return FALSE;

  0003f	33 c0		 xor	 eax, eax
  00041	e9 6a 01 00 00	 jmp	 $LN8@PspCreateS
$LN6@PspCreateS:

; 568  : 
; 569  : 	//초기 쓰레드의 백링크(Prev-Link) 설정
; 570  : 	HalSetupTaskLink(&PsGetThreadPtr(init_thread_handle)->thread_tss32, TASK_SW_SEG);

  00046	6a 28		 push	 40			; 00000028H
  00048	8b 45 f8	 mov	 eax, DWORD PTR _init_thread_handle$[ebp]
  0004b	83 c0 28	 add	 eax, 40			; 00000028H
  0004e	50		 push	 eax
  0004f	e8 00 00 00 00	 call	 _HalSetupTaskLink
  00054	83 c4 08	 add	 esp, 8

; 571  : 	//초기 쓰레드의 TSS를 GDT내에 설정
; 572  : 	HalWriteTssIntoGdt(&PsGetThreadPtr(init_thread_handle)->thread_tss32, sizeof(TSS_32), INIT_TSS_SEG, FALSE);

  00057	6a 00		 push	 0
  00059	6a 30		 push	 48			; 00000030H
  0005b	6a 68		 push	 104			; 00000068H
  0005d	8b 45 f8	 mov	 eax, DWORD PTR _init_thread_handle$[ebp]
  00060	83 c0 28	 add	 eax, 40			; 00000028H
  00063	50		 push	 eax
  00064	e8 00 00 00 00	 call	 _HalWriteTssIntoGdt
  00069	83 c4 10	 add	 esp, 16			; 00000010H

; 573  : 	_asm {
; 574  : 		push	ax

  0006c	66 50		 push	 ax

; 575  : 		mov		ax, INIT_TSS_SEG

  0006e	66 b8 30 00	 mov	 ax, 48			; 00000030H

; 576  : 		ltr		ax

  00072	0f 00 d8	 ltr	 ax

; 577  : 		pop		ax

  00075	66 58		 pop	 ax

; 578  : 	}
; 579  : 
; 580  : 	if(!PsCreateIntThread(&tmr_thread_handle, process_handle, Psp_IRQ_SystemTimer, NULL, DEFAULT_STACK_SIZE))

  00077	68 00 00 01 00	 push	 65536			; 00010000H
  0007c	6a 00		 push	 0
  0007e	68 00 00 00 00	 push	 OFFSET _Psp_IRQ_SystemTimer
  00083	8b 45 fc	 mov	 eax, DWORD PTR _process_handle$[ebp]
  00086	50		 push	 eax
  00087	8d 4d e8	 lea	 ecx, DWORD PTR _tmr_thread_handle$[ebp]
  0008a	51		 push	 ecx
  0008b	e8 00 00 00 00	 call	 _PsCreateIntThread
  00090	83 c4 14	 add	 esp, 20			; 00000014H
  00093	85 c0		 test	 eax, eax
  00095	75 07		 jne	 SHORT $LN5@PspCreateS

; 581  : 		return FALSE;

  00097	33 c0		 xor	 eax, eax
  00099	e9 12 01 00 00	 jmp	 $LN8@PspCreateS
$LN5@PspCreateS:

; 582  : 	HalWriteTssIntoGdt(&PsGetThreadPtr(tmr_thread_handle)->thread_tss32, sizeof(TSS_32), TMR_TSS_SEG, FALSE);

  0009e	6a 00		 push	 0
  000a0	6a 38		 push	 56			; 00000038H
  000a2	6a 68		 push	 104			; 00000068H
  000a4	8b 45 e8	 mov	 eax, DWORD PTR _tmr_thread_handle$[ebp]
  000a7	83 c0 28	 add	 eax, 40			; 00000028H
  000aa	50		 push	 eax
  000ab	e8 00 00 00 00	 call	 _HalWriteTssIntoGdt
  000b0	83 c4 10	 add	 esp, 16			; 00000010H

; 583  : 
; 584  : 	if(!PsCreateIntThread(&sw_task_sw_handle, process_handle, PspSoftTaskSW, NULL, DEFAULT_STACK_SIZE))

  000b3	68 00 00 01 00	 push	 65536			; 00010000H
  000b8	6a 00		 push	 0
  000ba	68 00 00 00 00	 push	 OFFSET _PspSoftTaskSW
  000bf	8b 45 fc	 mov	 eax, DWORD PTR _process_handle$[ebp]
  000c2	50		 push	 eax
  000c3	8d 4d e4	 lea	 ecx, DWORD PTR _sw_task_sw_handle$[ebp]
  000c6	51		 push	 ecx
  000c7	e8 00 00 00 00	 call	 _PsCreateIntThread
  000cc	83 c4 14	 add	 esp, 20			; 00000014H
  000cf	85 c0		 test	 eax, eax
  000d1	75 07		 jne	 SHORT $LN4@PspCreateS

; 585  : 		return FALSE;

  000d3	33 c0		 xor	 eax, eax
  000d5	e9 d6 00 00 00	 jmp	 $LN8@PspCreateS
$LN4@PspCreateS:

; 586  : 	HalWriteTssIntoGdt(&PsGetThreadPtr(sw_task_sw_handle)->thread_tss32, sizeof(TSS_32), SOFT_TS_TSS_SEG, FALSE);

  000da	6a 00		 push	 0
  000dc	6a 40		 push	 64			; 00000040H
  000de	6a 68		 push	 104			; 00000068H
  000e0	8b 45 e4	 mov	 eax, DWORD PTR _sw_task_sw_handle$[ebp]
  000e3	83 c0 28	 add	 eax, 40			; 00000028H
  000e6	50		 push	 eax
  000e7	e8 00 00 00 00	 call	 _HalWriteTssIntoGdt
  000ec	83 c4 10	 add	 esp, 16			; 00000010H

; 587  : 
; 588  : 	if(!PsCreateThread(&idle_thread_handle, process_handle, PspIdleThread, NULL, DEFAULT_STACK_SIZE, FALSE))

  000ef	6a 00		 push	 0
  000f1	68 00 00 01 00	 push	 65536			; 00010000H
  000f6	6a 00		 push	 0
  000f8	68 00 00 00 00	 push	 OFFSET _PspIdleThread
  000fd	8b 45 fc	 mov	 eax, DWORD PTR _process_handle$[ebp]
  00100	50		 push	 eax
  00101	8d 4d f4	 lea	 ecx, DWORD PTR _idle_thread_handle$[ebp]
  00104	51		 push	 ecx
  00105	e8 00 00 00 00	 call	 _PsCreateThread
  0010a	83 c4 18	 add	 esp, 24			; 00000018H
  0010d	85 c0		 test	 eax, eax
  0010f	75 07		 jne	 SHORT $LN3@PspCreateS

; 589  : 		return FALSE;

  00111	33 c0		 xor	 eax, eax
  00113	e9 98 00 00 00	 jmp	 $LN8@PspCreateS
$LN3@PspCreateS:

; 590  : 	PsSetThreadStatus(idle_thread_handle, THREAD_STATUS_RUNNING);

  00118	6a 04		 push	 4
  0011a	8b 45 f4	 mov	 eax, DWORD PTR _idle_thread_handle$[ebp]
  0011d	50		 push	 eax
  0011e	e8 00 00 00 00	 call	 _PsSetThreadStatus
  00123	83 c4 08	 add	 esp, 8

; 591  : 
; 592  : 	HalWriteTssIntoGdt(&PsGetThreadPtr(idle_thread_handle)->thread_tss32, sizeof(TSS_32), TASK_SW_SEG,
; 593  : 		TRUE);

  00126	6a 01		 push	 1
  00128	6a 28		 push	 40			; 00000028H
  0012a	6a 68		 push	 104			; 00000068H
  0012c	8b 45 f4	 mov	 eax, DWORD PTR _idle_thread_handle$[ebp]
  0012f	83 c0 28	 add	 eax, 40			; 00000028H
  00132	50		 push	 eax
  00133	e8 00 00 00 00	 call	 _HalWriteTssIntoGdt
  00138	83 c4 10	 add	 esp, 16			; 00000010H

; 594  : 	m_ProcMgrBlk.pt_current_thread = idle_thread_handle;

  0013b	8b 45 f4	 mov	 eax, DWORD PTR _idle_thread_handle$[ebp]
  0013e	a3 08 00 00 00	 mov	 DWORD PTR _m_ProcMgrBlk+8, eax

; 595  : 
; 596  : 	if(!PsCreateThread(&process_cutter_handle, process_handle, PspProcessCutterThread, NULL, DEFAULT_STACK_SIZE, FALSE))

  00143	6a 00		 push	 0
  00145	68 00 00 01 00	 push	 65536			; 00010000H
  0014a	6a 00		 push	 0
  0014c	68 00 00 00 00	 push	 OFFSET _PspProcessCutterThread
  00151	8b 45 fc	 mov	 eax, DWORD PTR _process_handle$[ebp]
  00154	50		 push	 eax
  00155	8d 4d f0	 lea	 ecx, DWORD PTR _process_cutter_handle$[ebp]
  00158	51		 push	 ecx
  00159	e8 00 00 00 00	 call	 _PsCreateThread
  0015e	83 c4 18	 add	 esp, 24			; 00000018H
  00161	85 c0		 test	 eax, eax
  00163	75 04		 jne	 SHORT $LN2@PspCreateS

; 597  : 		return FALSE;

  00165	33 c0		 xor	 eax, eax
  00167	eb 47		 jmp	 SHORT $LN8@PspCreateS
$LN2@PspCreateS:

; 598  : 	PsSetThreadStatus(process_cutter_handle, THREAD_STATUS_READY);

  00169	6a 02		 push	 2
  0016b	8b 45 f0	 mov	 eax, DWORD PTR _process_cutter_handle$[ebp]
  0016e	50		 push	 eax
  0016f	e8 00 00 00 00	 call	 _PsSetThreadStatus
  00174	83 c4 08	 add	 esp, 8

; 599  : 	if(!PsCreateThread(&thread_cutter_handle, process_handle, PspThreadCutterThread, NULL, DEFAULT_STACK_SIZE, FALSE))

  00177	6a 00		 push	 0
  00179	68 00 00 01 00	 push	 65536			; 00010000H
  0017e	6a 00		 push	 0
  00180	68 00 00 00 00	 push	 OFFSET _PspThreadCutterThread
  00185	8b 45 fc	 mov	 eax, DWORD PTR _process_handle$[ebp]
  00188	50		 push	 eax
  00189	8d 4d ec	 lea	 ecx, DWORD PTR _thread_cutter_handle$[ebp]
  0018c	51		 push	 ecx
  0018d	e8 00 00 00 00	 call	 _PsCreateThread
  00192	83 c4 18	 add	 esp, 24			; 00000018H
  00195	85 c0		 test	 eax, eax
  00197	75 04		 jne	 SHORT $LN1@PspCreateS

; 600  : 		return FALSE;

  00199	33 c0		 xor	 eax, eax
  0019b	eb 13		 jmp	 SHORT $LN8@PspCreateS
$LN1@PspCreateS:

; 601  : 	PsSetThreadStatus(thread_cutter_handle, THREAD_STATUS_READY);

  0019d	6a 02		 push	 2
  0019f	8b 45 ec	 mov	 eax, DWORD PTR _thread_cutter_handle$[ebp]
  001a2	50		 push	 eax
  001a3	e8 00 00 00 00	 call	 _PsSetThreadStatus
  001a8	83 c4 08	 add	 esp, 8

; 602  : 		
; 603  : 	return TRUE;

  001ab	b8 01 00 00 00	 mov	 eax, 1
$LN8@PspCreateS:

; 604  : }

  001b0	5f		 pop	 edi
  001b1	5e		 pop	 esi
  001b2	5b		 pop	 ebx
  001b3	8b e5		 mov	 esp, ebp
  001b5	5d		 pop	 ebp
  001b6	c3		 ret	 0
_PspCreateSystemProcess ENDP
; Function compile flags: /Odtp /ZI
_TEXT	ENDS
;	COMDAT _PspIdleThread
_TEXT	SEGMENT
_StartContext$ = 8					; size = 4
_PspIdleThread PROC					; COMDAT

; 411  : {

  00000	55		 push	 ebp
  00001	8b ec		 mov	 ebp, esp
  00003	83 ec 40	 sub	 esp, 64			; 00000040H
  00006	53		 push	 ebx
  00007	56		 push	 esi
  00008	57		 push	 edi
$LN2@PspIdleThr:

; 412  : 	while(1) {

  00009	b8 01 00 00 00	 mov	 eax, 1
  0000e	85 c0		 test	 eax, eax
  00010	74 07		 je	 SHORT $LN1@PspIdleThr

; 413  : 		HalTaskSwitch();

  00012	e8 00 00 00 00	 call	 _HalTaskSwitch

; 414  : 	}

  00017	eb f0		 jmp	 SHORT $LN2@PspIdleThr
$LN1@PspIdleThr:

; 415  : 	return 0;

  00019	33 c0		 xor	 eax, eax

; 416  : }

  0001b	5f		 pop	 edi
  0001c	5e		 pop	 esi
  0001d	5b		 pop	 ebx
  0001e	8b e5		 mov	 esp, ebp
  00020	5d		 pop	 ebp
  00021	c3		 ret	 0
_PspIdleThread ENDP
_TEXT	ENDS
EXTRN	_MmFreeNonCachedMemory:PROC
; Function compile flags: /Odtp /ZI
;	COMDAT _PspProcessCutterThread
_TEXT	SEGMENT
_pt_cur_thread$ = -16					; size = 4
_pt_cur_process$ = -12					; size = 4
_pt_prev_process$ = -8					; size = 4
_ProcessHandle$ = -4					; size = 4
_StartContext$ = 8					; size = 4
_PspProcessCutterThread PROC				; COMDAT

; 420  : {

  00000	55		 push	 ebp
  00001	8b ec		 mov	 ebp, esp
  00003	83 ec 50	 sub	 esp, 80			; 00000050H
  00006	53		 push	 ebx
  00007	56		 push	 esi
  00008	57		 push	 edi
$LN9@PspProcess:

; 421  : 	HANDLE ProcessHandle;
; 422  : 	PPROCESS_CONTROL_BLOCK	*pt_prev_process, *pt_cur_process;
; 423  : 	PTHREAD_CONTROL_BLOCK	*pt_cur_thread;
; 424  : 
; 425  : 	while(1) {

  00009	b8 01 00 00 00	 mov	 eax, 1
  0000e	85 c0		 test	 eax, eax
  00010	0f 84 d2 00 00
	00		 je	 $LN8@PspProcess

; 426  : 		if(!PspPopCuttingItem(&m_ProcessCuttingList, &ProcessHandle)) {

  00016	8d 45 fc	 lea	 eax, DWORD PTR _ProcessHandle$[ebp]
  00019	50		 push	 eax
  0001a	68 00 00 00 00	 push	 OFFSET _m_ProcessCuttingList
  0001f	e8 00 00 00 00	 call	 _PspPopCuttingItem
  00024	83 c4 08	 add	 esp, 8
  00027	85 c0		 test	 eax, eax
  00029	75 07		 jne	 SHORT $LN7@PspProcess

; 427  : 			HalTaskSwitch();

  0002b	e8 00 00 00 00	 call	 _HalTaskSwitch

; 428  : 			continue;

  00030	eb d7		 jmp	 SHORT $LN9@PspProcess
$LN7@PspProcess:

; 429  : 		}
; 430  : ENTER_CRITICAL_SECTION();

  00032	9c		 pushfd
  00033	fa		 cli

; 431  : 		if(ProcessHandle == PsGetThreadPtr(PsGetCurrentThread())->parent_process_handle) {

  00034	e8 00 00 00 00	 call	 _PsGetCurrentThread
  00039	8b 4d fc	 mov	 ecx, DWORD PTR _ProcessHandle$[ebp]
  0003c	3b 08		 cmp	 ecx, DWORD PTR [eax]
  0003e	75 05		 jne	 SHORT $LN6@PspProcess

; 432  : 			goto $exit;

  00040	e9 9d 00 00 00	 jmp	 $$exit$1195
$LN6@PspProcess:

; 433  : 		}
; 434  : 
; 435  : 		pt_prev_process = pt_cur_process = &(m_ProcMgrBlk.pt_head_process);

  00045	c7 45 f4 0c 00
	00 00		 mov	 DWORD PTR _pt_cur_process$[ebp], OFFSET _m_ProcMgrBlk+12
  0004c	8b 45 f4	 mov	 eax, DWORD PTR _pt_cur_process$[ebp]
  0004f	89 45 f8	 mov	 DWORD PTR _pt_prev_process$[ebp], eax
$LN5@PspProcess:

; 436  : 		while(*pt_cur_process != PsGetProcessPtr(ProcessHandle)) {

  00052	8b 45 f4	 mov	 eax, DWORD PTR _pt_cur_process$[ebp]
  00055	8b 08		 mov	 ecx, DWORD PTR [eax]
  00057	3b 4d fc	 cmp	 ecx, DWORD PTR _ProcessHandle$[ebp]
  0005a	74 20		 je	 SHORT $LN4@PspProcess

; 437  : 			if((*pt_cur_process)->pt_next_process == NULL) {

  0005c	8b 45 f4	 mov	 eax, DWORD PTR _pt_cur_process$[ebp]
  0005f	8b 08		 mov	 ecx, DWORD PTR [eax]
  00061	83 79 08 00	 cmp	 DWORD PTR [ecx+8], 0
  00065	75 02		 jne	 SHORT $LN3@PspProcess

; 438  : 				goto $exit;

  00067	eb 79		 jmp	 SHORT $$exit$1195
$LN3@PspProcess:

; 439  : 			}
; 440  : 			pt_prev_process = pt_cur_process;

  00069	8b 45 f4	 mov	 eax, DWORD PTR _pt_cur_process$[ebp]
  0006c	89 45 f8	 mov	 DWORD PTR _pt_prev_process$[ebp], eax

; 441  : 			pt_cur_process = &((*pt_cur_process)->pt_next_process);

  0006f	8b 45 f4	 mov	 eax, DWORD PTR _pt_cur_process$[ebp]
  00072	8b 08		 mov	 ecx, DWORD PTR [eax]
  00074	83 c1 08	 add	 ecx, 8
  00077	89 4d f4	 mov	 DWORD PTR _pt_cur_process$[ebp], ecx

; 442  : 		}

  0007a	eb d6		 jmp	 SHORT $LN5@PspProcess
$LN4@PspProcess:

; 443  : 
; 444  : 		(*pt_prev_process)->pt_next_process = (*pt_cur_process)->pt_next_process;

  0007c	8b 45 f4	 mov	 eax, DWORD PTR _pt_cur_process$[ebp]
  0007f	8b 08		 mov	 ecx, DWORD PTR [eax]
  00081	8b 55 f8	 mov	 edx, DWORD PTR _pt_prev_process$[ebp]
  00084	8b 02		 mov	 eax, DWORD PTR [edx]
  00086	8b 49 08	 mov	 ecx, DWORD PTR [ecx+8]
  00089	89 48 08	 mov	 DWORD PTR [eax+8], ecx

; 445  : 		m_ProcMgrBlk.process_count--;

  0008c	a1 00 00 00 00	 mov	 eax, DWORD PTR _m_ProcMgrBlk
  00091	83 e8 01	 sub	 eax, 1
  00094	a3 00 00 00 00	 mov	 DWORD PTR _m_ProcMgrBlk, eax

; 446  : 
; 447  : 		pt_cur_thread = &(PsGetProcessPtr(ProcessHandle)->pt_head_thread);

  00099	8b 45 fc	 mov	 eax, DWORD PTR _ProcessHandle$[ebp]
  0009c	83 c0 14	 add	 eax, 20			; 00000014H
  0009f	89 45 f0	 mov	 DWORD PTR _pt_cur_thread$[ebp], eax
$LN2@PspProcess:

; 448  : 		while(*pt_cur_thread != NULL) {

  000a2	8b 45 f0	 mov	 eax, DWORD PTR _pt_cur_thread$[ebp]
  000a5	83 38 00	 cmp	 DWORD PTR [eax], 0
  000a8	74 2c		 je	 SHORT $LN1@PspProcess

; 449  : 			MmFreeNonCachedMemory((PVOID)((*pt_cur_thread)->pt_stack_base_address));

  000aa	8b 45 f0	 mov	 eax, DWORD PTR _pt_cur_thread$[ebp]
  000ad	8b 08		 mov	 ecx, DWORD PTR [eax]
  000af	8b 51 20	 mov	 edx, DWORD PTR [ecx+32]
  000b2	52		 push	 edx
  000b3	e8 00 00 00 00	 call	 _MmFreeNonCachedMemory
  000b8	83 c4 04	 add	 esp, 4

; 450  : 			MmFreeNonCachedMemory((PVOID)(*pt_cur_thread));

  000bb	8b 45 f0	 mov	 eax, DWORD PTR _pt_cur_thread$[ebp]
  000be	8b 08		 mov	 ecx, DWORD PTR [eax]
  000c0	51		 push	 ecx
  000c1	e8 00 00 00 00	 call	 _MmFreeNonCachedMemory
  000c6	83 c4 04	 add	 esp, 4

; 451  : 			pt_cur_thread = &((*pt_cur_thread)->pt_next_thread);

  000c9	8b 45 f0	 mov	 eax, DWORD PTR _pt_cur_thread$[ebp]
  000cc	8b 08		 mov	 ecx, DWORD PTR [eax]
  000ce	83 c1 14	 add	 ecx, 20			; 00000014H
  000d1	89 4d f0	 mov	 DWORD PTR _pt_cur_thread$[ebp], ecx

; 452  : 		}

  000d4	eb cc		 jmp	 SHORT $LN2@PspProcess
$LN1@PspProcess:

; 453  : 
; 454  : 		MmFreeNonCachedMemory((PVOID)ProcessHandle);

  000d6	8b 45 fc	 mov	 eax, DWORD PTR _ProcessHandle$[ebp]
  000d9	50		 push	 eax
  000da	e8 00 00 00 00	 call	 _MmFreeNonCachedMemory
  000df	83 c4 04	 add	 esp, 4
$$exit$1195:

; 455  : 
; 456  : $exit:
; 457  : EXIT_CRITICAL_SECTION();

  000e2	9d		 popfd

; 458  : 	}

  000e3	e9 21 ff ff ff	 jmp	 $LN9@PspProcess
$LN8@PspProcess:

; 459  : 
; 460  : 	return 0;

  000e8	33 c0		 xor	 eax, eax

; 461  : }

  000ea	5f		 pop	 edi
  000eb	5e		 pop	 esi
  000ec	5b		 pop	 ebx
  000ed	8b e5		 mov	 esp, ebp
  000ef	5d		 pop	 ebp
  000f0	c3		 ret	 0
_PspProcessCutterThread ENDP
; Function compile flags: /Odtp /ZI
_TEXT	ENDS
;	COMDAT _PspPopCuttingItem
_TEXT	SEGMENT
_bResult$ = -4						; size = 4
_pCuttingList$ = 8					; size = 4
_pItem$ = 12						; size = 4
_PspPopCuttingItem PROC					; COMDAT

; 251  : {

  00000	55		 push	 ebp
  00001	8b ec		 mov	 ebp, esp
  00003	83 ec 44	 sub	 esp, 68			; 00000044H
  00006	53		 push	 ebx
  00007	56		 push	 esi
  00008	57		 push	 edi

; 252  : 	BOOL bResult = TRUE;

  00009	c7 45 fc 01 00
	00 00		 mov	 DWORD PTR _bResult$[ebp], 1

; 253  : 
; 254  : ENTER_CRITICAL_SECTION();

  00010	9c		 pushfd
  00011	fa		 cli

; 255  : 	{
; 256  : 		if(pCuttingList->count == 0) {

  00012	8b 45 08	 mov	 eax, DWORD PTR _pCuttingList$[ebp]
  00015	0f b6 08	 movzx	 ecx, BYTE PTR [eax]
  00018	85 c9		 test	 ecx, ecx
  0001a	75 09		 jne	 SHORT $LN2@PspPopCutt

; 257  : 			bResult = FALSE;

  0001c	c7 45 fc 00 00
	00 00		 mov	 DWORD PTR _bResult$[ebp], 0

; 258  : 			goto $exit;

  00023	eb 41		 jmp	 SHORT $$exit$1098
$LN2@PspPopCutt:

; 259  : 		}
; 260  : 
; 261  : 		pCuttingList->count--;

  00025	8b 45 08	 mov	 eax, DWORD PTR _pCuttingList$[ebp]
  00028	8a 08		 mov	 cl, BYTE PTR [eax]
  0002a	80 e9 01	 sub	 cl, 1
  0002d	8b 55 08	 mov	 edx, DWORD PTR _pCuttingList$[ebp]
  00030	88 0a		 mov	 BYTE PTR [edx], cl

; 262  : 		*pItem = pCuttingList->handle_list[pCuttingList->head++];

  00032	8b 45 08	 mov	 eax, DWORD PTR _pCuttingList$[ebp]
  00035	0f b6 48 01	 movzx	 ecx, BYTE PTR [eax+1]
  00039	8b 55 0c	 mov	 edx, DWORD PTR _pItem$[ebp]
  0003c	8b 45 08	 mov	 eax, DWORD PTR _pCuttingList$[ebp]
  0003f	8b 4c 88 03	 mov	 ecx, DWORD PTR [eax+ecx*4+3]
  00043	89 0a		 mov	 DWORD PTR [edx], ecx
  00045	8b 55 08	 mov	 edx, DWORD PTR _pCuttingList$[ebp]
  00048	8a 42 01	 mov	 al, BYTE PTR [edx+1]
  0004b	04 01		 add	 al, 1
  0004d	8b 4d 08	 mov	 ecx, DWORD PTR _pCuttingList$[ebp]
  00050	88 41 01	 mov	 BYTE PTR [ecx+1], al

; 263  : 		if(pCuttingList->head >= MAX_CUTTING_ITEM)

  00053	8b 45 08	 mov	 eax, DWORD PTR _pCuttingList$[ebp]
  00056	0f b6 48 01	 movzx	 ecx, BYTE PTR [eax+1]
  0005a	83 f9 1e	 cmp	 ecx, 30			; 0000001eH
  0005d	7c 07		 jl	 SHORT $$exit$1098

; 264  : 			pCuttingList->head = 0;

  0005f	8b 45 08	 mov	 eax, DWORD PTR _pCuttingList$[ebp]
  00062	c6 40 01 00	 mov	 BYTE PTR [eax+1], 0
$$exit$1098:

; 265  : 	}
; 266  : $exit:
; 267  : EXIT_CRITICAL_SECTION();

  00066	9d		 popfd

; 268  : 	return bResult;

  00067	8b 45 fc	 mov	 eax, DWORD PTR _bResult$[ebp]

; 269  : }

  0006a	5f		 pop	 edi
  0006b	5e		 pop	 esi
  0006c	5b		 pop	 ebx
  0006d	8b e5		 mov	 esp, ebp
  0006f	5d		 pop	 ebp
  00070	c3		 ret	 0
_PspPopCuttingItem ENDP
; Function compile flags: /Odtp /ZI
_TEXT	ENDS
;	COMDAT _PspThreadCutterThread
_TEXT	SEGMENT
_pt_cur_thread$ = -16					; size = 4
_pt_prev_thread$ = -12					; size = 4
_ThreadHandle$ = -8					; size = 4
_ProcessHandle$ = -4					; size = 4
_StartContext$ = 8					; size = 4
_PspThreadCutterThread PROC				; COMDAT

; 465  : {

  00000	55		 push	 ebp
  00001	8b ec		 mov	 ebp, esp
  00003	83 ec 50	 sub	 esp, 80			; 00000050H
  00006	53		 push	 ebx
  00007	56		 push	 esi
  00008	57		 push	 edi
$LN12@PspThreadC:

; 466  : 	HANDLE ProcessHandle, ThreadHandle;
; 467  : 	PTHREAD_CONTROL_BLOCK *pt_prev_thread, *pt_cur_thread;
; 468  : 
; 469  : 	while(1) {

  00009	b8 01 00 00 00	 mov	 eax, 1
  0000e	85 c0		 test	 eax, eax
  00010	0f 84 e1 00 00
	00		 je	 $LN13@PspThreadC

; 470  : 		if(!PspPopCuttingItem(&m_ThreadCuttingList, &ThreadHandle)) {

  00016	8d 45 f8	 lea	 eax, DWORD PTR _ThreadHandle$[ebp]
  00019	50		 push	 eax
  0001a	68 00 00 00 00	 push	 OFFSET _m_ThreadCuttingList
  0001f	e8 00 00 00 00	 call	 _PspPopCuttingItem
  00024	83 c4 08	 add	 esp, 8
  00027	85 c0		 test	 eax, eax
  00029	75 07		 jne	 SHORT $LN10@PspThreadC

; 471  : 			HalTaskSwitch();

  0002b	e8 00 00 00 00	 call	 _HalTaskSwitch

; 472  : 			continue;

  00030	eb d7		 jmp	 SHORT $LN12@PspThreadC
$LN10@PspThreadC:

; 473  : 		}
; 474  : ENTER_CRITICAL_SECTION();

  00032	9c		 pushfd
  00033	fa		 cli

; 475  : 		ProcessHandle = PsGetThreadPtr(ThreadHandle)->parent_process_handle;

  00034	8b 45 f8	 mov	 eax, DWORD PTR _ThreadHandle$[ebp]
  00037	8b 08		 mov	 ecx, DWORD PTR [eax]
  00039	89 4d fc	 mov	 DWORD PTR _ProcessHandle$[ebp], ecx

; 476  : 
; 477  : 		if(ProcessHandle == PsGetThreadPtr(PsGetCurrentThread())->parent_process_handle) {

  0003c	e8 00 00 00 00	 call	 _PsGetCurrentThread
  00041	8b 4d fc	 mov	 ecx, DWORD PTR _ProcessHandle$[ebp]
  00044	3b 08		 cmp	 ecx, DWORD PTR [eax]
  00046	75 05		 jne	 SHORT $LN9@PspThreadC

; 478  : 			goto $exit;

  00048	e9 a4 00 00 00	 jmp	 $$exit$1223
$LN9@PspThreadC:

; 479  : 		}
; 480  : 
; 481  : 		if(PsGetProcessPtr(ProcessHandle)->thread_count == 0) {

  0004d	8b 45 fc	 mov	 eax, DWORD PTR _ProcessHandle$[ebp]
  00050	83 78 0c 00	 cmp	 DWORD PTR [eax+12], 0
  00054	75 07		 jne	 SHORT $LN8@PspThreadC
  00056	e9 96 00 00 00	 jmp	 $$exit$1223

; 482  : 			goto $exit;

  0005b	eb 5e		 jmp	 SHORT $LN7@PspThreadC
$LN8@PspThreadC:

; 483  : 		}
; 484  : 
; 485  : 		else if(PsGetProcessPtr(ProcessHandle)->thread_count == 1) {

  0005d	8b 45 fc	 mov	 eax, DWORD PTR _ProcessHandle$[ebp]
  00060	83 78 0c 01	 cmp	 DWORD PTR [eax+12], 1
  00064	75 0c		 jne	 SHORT $LN6@PspThreadC

; 486  : 			PsGetProcessPtr(ProcessHandle)->pt_head_thread = NULL;

  00066	8b 45 fc	 mov	 eax, DWORD PTR _ProcessHandle$[ebp]
  00069	c7 40 14 00 00
	00 00		 mov	 DWORD PTR [eax+20], 0

; 487  : 		}
; 488  : 
; 489  : 		else {

  00070	eb 49		 jmp	 SHORT $LN7@PspThreadC
$LN6@PspThreadC:

; 490  : 			pt_prev_thread = pt_cur_thread = &(PsGetProcessPtr(ProcessHandle)->pt_head_thread);

  00072	8b 45 fc	 mov	 eax, DWORD PTR _ProcessHandle$[ebp]
  00075	83 c0 14	 add	 eax, 20			; 00000014H
  00078	89 45 f0	 mov	 DWORD PTR _pt_cur_thread$[ebp], eax
  0007b	8b 4d f0	 mov	 ecx, DWORD PTR _pt_cur_thread$[ebp]
  0007e	89 4d f4	 mov	 DWORD PTR _pt_prev_thread$[ebp], ecx
$LN4@PspThreadC:

; 491  : 			while(*pt_cur_thread != PsGetThreadPtr(ThreadHandle)) {

  00081	8b 45 f0	 mov	 eax, DWORD PTR _pt_cur_thread$[ebp]
  00084	8b 08		 mov	 ecx, DWORD PTR [eax]
  00086	3b 4d f8	 cmp	 ecx, DWORD PTR _ThreadHandle$[ebp]
  00089	74 20		 je	 SHORT $LN3@PspThreadC

; 492  : 				if((*pt_cur_thread)->pt_next_thread == NULL) {

  0008b	8b 45 f0	 mov	 eax, DWORD PTR _pt_cur_thread$[ebp]
  0008e	8b 08		 mov	 ecx, DWORD PTR [eax]
  00090	83 79 14 00	 cmp	 DWORD PTR [ecx+20], 0
  00094	75 02		 jne	 SHORT $LN2@PspThreadC

; 493  : 					goto $exit;

  00096	eb 59		 jmp	 SHORT $$exit$1223
$LN2@PspThreadC:

; 494  : 				}
; 495  : 				pt_prev_thread = pt_cur_thread;

  00098	8b 45 f0	 mov	 eax, DWORD PTR _pt_cur_thread$[ebp]
  0009b	89 45 f4	 mov	 DWORD PTR _pt_prev_thread$[ebp], eax

; 496  : 				pt_cur_thread = &((*pt_cur_thread)->pt_next_thread);

  0009e	8b 45 f0	 mov	 eax, DWORD PTR _pt_cur_thread$[ebp]
  000a1	8b 08		 mov	 ecx, DWORD PTR [eax]
  000a3	83 c1 14	 add	 ecx, 20			; 00000014H
  000a6	89 4d f0	 mov	 DWORD PTR _pt_cur_thread$[ebp], ecx

; 497  : 			}

  000a9	eb d6		 jmp	 SHORT $LN4@PspThreadC
$LN3@PspThreadC:

; 498  : 			(*pt_prev_thread)->pt_next_thread = (*pt_cur_thread)->pt_next_thread;

  000ab	8b 45 f0	 mov	 eax, DWORD PTR _pt_cur_thread$[ebp]
  000ae	8b 08		 mov	 ecx, DWORD PTR [eax]
  000b0	8b 55 f4	 mov	 edx, DWORD PTR _pt_prev_thread$[ebp]
  000b3	8b 02		 mov	 eax, DWORD PTR [edx]
  000b5	8b 49 14	 mov	 ecx, DWORD PTR [ecx+20]
  000b8	89 48 14	 mov	 DWORD PTR [eax+20], ecx
$LN7@PspThreadC:

; 499  : 		}
; 500  : 		PsGetProcessPtr(ProcessHandle)->thread_count--;

  000bb	8b 45 fc	 mov	 eax, DWORD PTR _ProcessHandle$[ebp]
  000be	8b 48 0c	 mov	 ecx, DWORD PTR [eax+12]
  000c1	83 e9 01	 sub	 ecx, 1
  000c4	8b 55 fc	 mov	 edx, DWORD PTR _ProcessHandle$[ebp]
  000c7	89 4a 0c	 mov	 DWORD PTR [edx+12], ecx

; 501  : 
; 502  : 		if(PsGetThreadPtr(ThreadHandle)->pt_stack_base_address >= (int *)0x00200000)

  000ca	8b 45 f8	 mov	 eax, DWORD PTR _ThreadHandle$[ebp]
  000cd	81 78 20 00 00
	20 00		 cmp	 DWORD PTR [eax+32], 2097152 ; 00200000H
  000d4	72 0f		 jb	 SHORT $LN1@PspThreadC

; 503  : 			MmFreeNonCachedMemory((PVOID)(PsGetThreadPtr(ThreadHandle)->pt_stack_base_address));

  000d6	8b 45 f8	 mov	 eax, DWORD PTR _ThreadHandle$[ebp]
  000d9	8b 48 20	 mov	 ecx, DWORD PTR [eax+32]
  000dc	51		 push	 ecx
  000dd	e8 00 00 00 00	 call	 _MmFreeNonCachedMemory
  000e2	83 c4 04	 add	 esp, 4
$LN1@PspThreadC:

; 504  : 
; 505  : 		MmFreeNonCachedMemory((PVOID)(PsGetThreadPtr(ThreadHandle)));

  000e5	8b 45 f8	 mov	 eax, DWORD PTR _ThreadHandle$[ebp]
  000e8	50		 push	 eax
  000e9	e8 00 00 00 00	 call	 _MmFreeNonCachedMemory
  000ee	83 c4 04	 add	 esp, 4
$$exit$1223:

; 506  : 
; 507  : $exit:
; 508  : EXIT_CRITICAL_SECTION();

  000f1	9d		 popfd

; 509  : 	}

  000f2	e9 12 ff ff ff	 jmp	 $LN12@PspThreadC
$LN13@PspThreadC:

; 510  : }

  000f7	5f		 pop	 edi
  000f8	5e		 pop	 esi
  000f9	5b		 pop	 ebx
  000fa	8b e5		 mov	 esp, ebp
  000fc	5d		 pop	 ebp
  000fd	c3		 ret	 0
_PspThreadCutterThread ENDP
; Function compile flags: /Odtp /ZI
_TEXT	ENDS
;	COMDAT _PspSoftTaskSW
_TEXT	SEGMENT
_status$ = -20						; size = 8
_addr$ = -12						; size = 4
_pos$ = -8						; size = 4
_cnt$ = -4						; size = 4
_StartContext$ = 8					; size = 4
_PspSoftTaskSW PROC					; COMDAT

; 514  : {

  00000	55		 push	 ebp
  00001	8b ec		 mov	 ebp, esp
  00003	83 ec 54	 sub	 esp, 84			; 00000054H
  00006	53		 push	 ebx
  00007	56		 push	 esi
  00008	57		 push	 edi

; 515  : 	int cnt = 0, pos = 0;

  00009	c7 45 fc 00 00
	00 00		 mov	 DWORD PTR _cnt$[ebp], 0
  00010	c7 45 f8 00 00
	00 00		 mov	 DWORD PTR _pos$[ebp], 0

; 516  : 	char *addr = (char *)TS_WATCHDOG_CLOCK_POS, status[] = {'-', '\\', '|', '/', '-', '\\', '|', '/'};

  00017	c7 45 f4 9e 80
	0b 00		 mov	 DWORD PTR _addr$[ebp], 753822 ; 000b809eH
  0001e	c6 45 ec 2d	 mov	 BYTE PTR _status$[ebp], 45 ; 0000002dH
  00022	c6 45 ed 5c	 mov	 BYTE PTR _status$[ebp+1], 92 ; 0000005cH
  00026	c6 45 ee 7c	 mov	 BYTE PTR _status$[ebp+2], 124 ; 0000007cH
  0002a	c6 45 ef 2f	 mov	 BYTE PTR _status$[ebp+3], 47 ; 0000002fH
  0002e	c6 45 f0 2d	 mov	 BYTE PTR _status$[ebp+4], 45 ; 0000002dH
  00032	c6 45 f1 5c	 mov	 BYTE PTR _status$[ebp+5], 92 ; 0000005cH
  00036	c6 45 f2 7c	 mov	 BYTE PTR _status$[ebp+6], 124 ; 0000007cH
  0003a	c6 45 f3 2f	 mov	 BYTE PTR _status$[ebp+7], 47 ; 0000002fH
$LN5@PspSoftTas:

; 517  : 
; 518  : 	while(1) {

  0003e	b8 01 00 00 00	 mov	 eax, 1
  00043	85 c0		 test	 eax, eax
  00045	74 4c		 je	 SHORT $LN4@PspSoftTas

; 519  : 		_asm cli

  00047	fa		 cli

; 520  : 
; 521  : 		if(cnt++ >= TIMEOUT_PER_SECOND) {

  00048	8b 45 fc	 mov	 eax, DWORD PTR _cnt$[ebp]
  0004b	8b 4d fc	 mov	 ecx, DWORD PTR _cnt$[ebp]
  0004e	83 c1 01	 add	 ecx, 1
  00051	89 4d fc	 mov	 DWORD PTR _cnt$[ebp], ecx
  00054	83 f8 32	 cmp	 eax, 50			; 00000032H
  00057	7c 32		 jl	 SHORT $LN3@PspSoftTas

; 522  : 
; 523  : 			if(++pos > 7) pos = 0;

  00059	8b 45 f8	 mov	 eax, DWORD PTR _pos$[ebp]
  0005c	83 c0 01	 add	 eax, 1
  0005f	89 45 f8	 mov	 DWORD PTR _pos$[ebp], eax
  00062	83 7d f8 07	 cmp	 DWORD PTR _pos$[ebp], 7
  00066	7e 07		 jle	 SHORT $LN2@PspSoftTas
  00068	c7 45 f8 00 00
	00 00		 mov	 DWORD PTR _pos$[ebp], 0
$LN2@PspSoftTas:

; 524  : 			cnt = 0;

  0006f	c7 45 fc 00 00
	00 00		 mov	 DWORD PTR _cnt$[ebp], 0

; 525  : 			if(m_bShowTSWatchdogClock)

  00076	83 3d 00 00 00
	00 00		 cmp	 DWORD PTR _m_bShowTSWatchdogClock, 0
  0007d	74 0c		 je	 SHORT $LN3@PspSoftTas

; 526  : 				*addr = status[pos];

  0007f	8b 45 f4	 mov	 eax, DWORD PTR _addr$[ebp]
  00082	8b 4d f8	 mov	 ecx, DWORD PTR _pos$[ebp]
  00085	8a 54 0d ec	 mov	 dl, BYTE PTR _status$[ebp+ecx]
  00089	88 10		 mov	 BYTE PTR [eax], dl
$LN3@PspSoftTas:

; 527  : 		}
; 528  : 
; 529  : 		PspSetupTaskSWEnv();

  0008b	e8 00 00 00 00	 call	 _PspSetupTaskSWEnv

; 530  : 
; 531  : 		_asm iretd

  00090	cf		 iretd

; 532  : 	}

  00091	eb ab		 jmp	 SHORT $LN5@PspSoftTas
$LN4@PspSoftTas:

; 533  : 
; 534  : 	return 0;

  00093	33 c0		 xor	 eax, eax

; 535  : }

  00095	5f		 pop	 edi
  00096	5e		 pop	 esi
  00097	5b		 pop	 ebx
  00098	8b e5		 mov	 esp, ebp
  0009a	5d		 pop	 ebp
  0009b	c3		 ret	 0
_PspSoftTaskSW ENDP
; Function compile flags: /Odtp /ZI
_TEXT	ENDS
;	COMDAT _PspSetupTaskSWEnv
_TEXT	SEGMENT
_next_thread$ = -8					; size = 4
_current_thread$ = -4					; size = 4
_PspSetupTaskSWEnv PROC					; COMDAT

; 386  : {

  00000	55		 push	 ebp
  00001	8b ec		 mov	 ebp, esp
  00003	83 ec 48	 sub	 esp, 72			; 00000048H
  00006	53		 push	 ebx
  00007	56		 push	 esi
  00008	57		 push	 edi

; 387  : 	HANDLE current_thread, next_thread;
; 388  : 
; 389  : 	current_thread = PsGetCurrentThread();

  00009	e8 00 00 00 00	 call	 _PsGetCurrentThread
  0000e	89 45 fc	 mov	 DWORD PTR _current_thread$[ebp], eax

; 390  : 
; 391  : 	next_thread = PspFindNextThreadScheduled();

  00011	e8 00 00 00 00	 call	 _PspFindNextThreadScheduled
  00016	89 45 f8	 mov	 DWORD PTR _next_thread$[ebp], eax

; 392  : 
; 393  : 	if(PsGetThreadPtr(current_thread)->thread_status == THREAD_STATUS_TERMINATED) {

  00019	8b 45 fc	 mov	 eax, DWORD PTR _current_thread$[ebp]
  0001c	83 78 0c 01	 cmp	 DWORD PTR [eax+12], 1
  00020	75 17		 jne	 SHORT $LN5@PspSetupTa

; 394  : 		if(PsGetThreadPtr(current_thread)->auto_delete) {

  00022	8b 45 fc	 mov	 eax, DWORD PTR _current_thread$[ebp]
  00025	83 78 10 00	 cmp	 DWORD PTR [eax+16], 0
  00029	74 0c		 je	 SHORT $LN4@PspSetupTa

; 395  : 			PsDeleteThread(current_thread);

  0002b	8b 45 fc	 mov	 eax, DWORD PTR _current_thread$[ebp]
  0002e	50		 push	 eax
  0002f	e8 00 00 00 00	 call	 _PsDeleteThread
  00034	83 c4 04	 add	 esp, 4
$LN4@PspSetupTa:

; 396  : 		}

  00037	eb 13		 jmp	 SHORT $LN3@PspSetupTa
$LN5@PspSetupTa:

; 397  : 	} else if(PsGetThreadPtr(current_thread)->thread_status == THREAD_STATUS_RUNNING) {

  00039	8b 45 fc	 mov	 eax, DWORD PTR _current_thread$[ebp]
  0003c	83 78 0c 04	 cmp	 DWORD PTR [eax+12], 4
  00040	75 0a		 jne	 SHORT $LN3@PspSetupTa

; 398  : 		PsGetThreadPtr(current_thread)->thread_status = THREAD_STATUS_READY;

  00042	8b 45 fc	 mov	 eax, DWORD PTR _current_thread$[ebp]
  00045	c7 40 0c 02 00
	00 00		 mov	 DWORD PTR [eax+12], 2
$LN3@PspSetupTa:

; 399  : 	}
; 400  : 
; 401  : 	if(current_thread != next_thread && next_thread != NULL) {

  0004c	8b 45 fc	 mov	 eax, DWORD PTR _current_thread$[ebp]
  0004f	3b 45 f8	 cmp	 eax, DWORD PTR _next_thread$[ebp]
  00052	74 25		 je	 SHORT $LN6@PspSetupTa
  00054	83 7d f8 00	 cmp	 DWORD PTR _next_thread$[ebp], 0
  00058	74 1f		 je	 SHORT $LN6@PspSetupTa

; 402  : 		HalWriteTssIntoGdt(&PsGetThreadPtr(next_thread)->thread_tss32, sizeof(TSS_32), TASK_SW_SEG, TRUE);

  0005a	6a 01		 push	 1
  0005c	6a 28		 push	 40			; 00000028H
  0005e	6a 68		 push	 104			; 00000068H
  00060	8b 45 f8	 mov	 eax, DWORD PTR _next_thread$[ebp]
  00063	83 c0 28	 add	 eax, 40			; 00000028H
  00066	50		 push	 eax
  00067	e8 00 00 00 00	 call	 _HalWriteTssIntoGdt
  0006c	83 c4 10	 add	 esp, 16			; 00000010H

; 403  : 		PsGetThreadPtr(next_thread)->thread_status = THREAD_STATUS_RUNNING;

  0006f	8b 45 f8	 mov	 eax, DWORD PTR _next_thread$[ebp]
  00072	c7 40 0c 04 00
	00 00		 mov	 DWORD PTR [eax+12], 4
$LN6@PspSetupTa:

; 404  : 	}
; 405  : }

  00079	5f		 pop	 edi
  0007a	5e		 pop	 esi
  0007b	5b		 pop	 ebx
  0007c	8b e5		 mov	 esp, ebp
  0007e	5d		 pop	 ebp
  0007f	c3		 ret	 0
_PspSetupTaskSWEnv ENDP
; Function compile flags: /Odtp /ZI
_TEXT	ENDS
;	COMDAT _PspFindNextThreadScheduled
_TEXT	SEGMENT
_pt_process$ = -8					; size = 4
_pt_thread$ = -4					; size = 4
_PspFindNextThreadScheduled PROC			; COMDAT

; 350  : {

  00000	55		 push	 ebp
  00001	8b ec		 mov	 ebp, esp
  00003	83 ec 48	 sub	 esp, 72			; 00000048H
  00006	53		 push	 ebx
  00007	56		 push	 esi
  00008	57		 push	 edi

; 351  : 	PTHREAD_CONTROL_BLOCK	pt_thread;
; 352  : 	PPROCESS_CONTROL_BLOCK	pt_process;
; 353  : 
; 354  : 	if(m_ProcMgrBlk.process_count == 0 || m_ProcMgrBlk.pt_current_thread == NULL || m_ProcMgrBlk.pt_head_process == NULL) {

  00009	83 3d 00 00 00
	00 00		 cmp	 DWORD PTR _m_ProcMgrBlk, 0
  00010	74 12		 je	 SHORT $LN9@PspFindNex
  00012	83 3d 08 00 00
	00 00		 cmp	 DWORD PTR _m_ProcMgrBlk+8, 0
  00019	74 09		 je	 SHORT $LN9@PspFindNex
  0001b	83 3d 0c 00 00
	00 00		 cmp	 DWORD PTR _m_ProcMgrBlk+12, 0
  00022	75 07		 jne	 SHORT $LN10@PspFindNex
$LN9@PspFindNex:

; 355  : 		return NULL;

  00024	33 c0		 xor	 eax, eax
  00026	e9 80 00 00 00	 jmp	 $LN11@PspFindNex
$LN10@PspFindNex:

; 356  : 	}
; 357  : 	pt_thread = m_ProcMgrBlk.pt_current_thread;

  0002b	a1 08 00 00 00	 mov	 eax, DWORD PTR _m_ProcMgrBlk+8
  00030	89 45 fc	 mov	 DWORD PTR _pt_thread$[ebp], eax
$$find_thread$1144:

; 358  : 
; 359  : $find_thread:
; 360  : 		if(pt_thread->pt_next_thread != NULL) {

  00033	8b 45 fc	 mov	 eax, DWORD PTR _pt_thread$[ebp]
  00036	83 78 14 00	 cmp	 DWORD PTR [eax+20], 0
  0003a	74 0b		 je	 SHORT $LN6@PspFindNex

; 361  : 		pt_thread = pt_thread->pt_next_thread;

  0003c	8b 45 fc	 mov	 eax, DWORD PTR _pt_thread$[ebp]
  0003f	8b 48 14	 mov	 ecx, DWORD PTR [eax+20]
  00042	89 4d fc	 mov	 DWORD PTR _pt_thread$[ebp], ecx

; 362  : 	} else {

  00045	eb 45		 jmp	 SHORT $LN7@PspFindNex
$LN6@PspFindNex:

; 363  : 		while(1) {

  00047	b8 01 00 00 00	 mov	 eax, 1
  0004c	85 c0		 test	 eax, eax
  0004e	74 3c		 je	 SHORT $LN7@PspFindNex

; 364  : 			pt_process = PsGetProcessPtr(pt_thread->parent_process_handle)->pt_next_process;

  00050	8b 45 fc	 mov	 eax, DWORD PTR _pt_thread$[ebp]
  00053	8b 08		 mov	 ecx, DWORD PTR [eax]
  00055	8b 51 08	 mov	 edx, DWORD PTR [ecx+8]
  00058	89 55 f8	 mov	 DWORD PTR _pt_process$[ebp], edx
$$find_process$1151:

; 365  : $find_process:
; 366  : 			if(pt_process == NULL)

  0005b	83 7d f8 00	 cmp	 DWORD PTR _pt_process$[ebp], 0
  0005f	75 08		 jne	 SHORT $LN4@PspFindNex

; 367  : 				pt_process = m_ProcMgrBlk.pt_head_process;

  00061	a1 0c 00 00 00	 mov	 eax, DWORD PTR _m_ProcMgrBlk+12
  00066	89 45 f8	 mov	 DWORD PTR _pt_process$[ebp], eax
$LN4@PspFindNex:

; 368  : 			if(pt_process->pt_head_thread == NULL) {

  00069	8b 45 f8	 mov	 eax, DWORD PTR _pt_process$[ebp]
  0006c	83 78 14 00	 cmp	 DWORD PTR [eax+20], 0
  00070	75 0d		 jne	 SHORT $LN3@PspFindNex

; 369  : 				pt_process = pt_process->pt_next_process;

  00072	8b 45 f8	 mov	 eax, DWORD PTR _pt_process$[ebp]
  00075	8b 48 08	 mov	 ecx, DWORD PTR [eax+8]
  00078	89 4d f8	 mov	 DWORD PTR _pt_process$[ebp], ecx

; 370  : 				goto $find_process;

  0007b	eb de		 jmp	 SHORT $$find_process$1151

; 371  : 			} else {

  0007d	eb 0b		 jmp	 SHORT $LN2@PspFindNex
$LN3@PspFindNex:

; 372  : 				pt_thread = pt_process->pt_head_thread;

  0007f	8b 45 f8	 mov	 eax, DWORD PTR _pt_process$[ebp]
  00082	8b 48 14	 mov	 ecx, DWORD PTR [eax+20]
  00085	89 4d fc	 mov	 DWORD PTR _pt_thread$[ebp], ecx

; 373  : 				break;

  00088	eb 02		 jmp	 SHORT $LN7@PspFindNex
$LN2@PspFindNex:

; 374  : 			}
; 375  : 		}

  0008a	eb bb		 jmp	 SHORT $LN6@PspFindNex
$LN7@PspFindNex:

; 376  : 	}	
; 377  : 		if(pt_thread->thread_status != THREAD_STATUS_READY && pt_thread->thread_status != THREAD_STATUS_RUNNING)

  0008c	8b 45 fc	 mov	 eax, DWORD PTR _pt_thread$[ebp]
  0008f	83 78 0c 02	 cmp	 DWORD PTR [eax+12], 2
  00093	74 0b		 je	 SHORT $LN1@PspFindNex
  00095	8b 45 fc	 mov	 eax, DWORD PTR _pt_thread$[ebp]
  00098	83 78 0c 04	 cmp	 DWORD PTR [eax+12], 4
  0009c	74 02		 je	 SHORT $LN1@PspFindNex

; 378  : 			goto $find_thread;

  0009e	eb 93		 jmp	 SHORT $$find_thread$1144
$LN1@PspFindNex:

; 379  : 		m_ProcMgrBlk.pt_current_thread = pt_thread;

  000a0	8b 45 fc	 mov	 eax, DWORD PTR _pt_thread$[ebp]
  000a3	a3 08 00 00 00	 mov	 DWORD PTR _m_ProcMgrBlk+8, eax

; 380  : 
; 381  : 		return (HANDLE)pt_thread;

  000a8	8b 45 fc	 mov	 eax, DWORD PTR _pt_thread$[ebp]
$LN11@PspFindNex:

; 382  : }

  000ab	5f		 pop	 edi
  000ac	5e		 pop	 esi
  000ad	5b		 pop	 ebx
  000ae	8b e5		 mov	 esp, ebp
  000b0	5d		 pop	 ebp
  000b1	c3		 ret	 0
_PspFindNextThreadScheduled ENDP
_TEXT	ENDS
EXTRN	_WRITE_PORT_UCHAR:PROC
; Function compile flags: /Odtp /ZI
;	COMDAT _Psp_IRQ_SystemTimer
_TEXT	SEGMENT
_StartContext$ = 8					; size = 4
_Psp_IRQ_SystemTimer PROC				; COMDAT

; 540  : {

  00000	55		 push	 ebp
  00001	8b ec		 mov	 ebp, esp
  00003	83 ec 40	 sub	 esp, 64			; 00000040H
  00006	53		 push	 ebx
  00007	56		 push	 esi
  00008	57		 push	 edi
$LN2@Psp_IRQ_Sy:

; 541  : 	while(1) {

  00009	b8 01 00 00 00	 mov	 eax, 1
  0000e	85 c0		 test	 eax, eax
  00010	74 22		 je	 SHORT $LN1@Psp_IRQ_Sy

; 542  : 		_asm cli

  00012	fa		 cli

; 543  : 
; 544  : 		m_TickCount++;

  00013	a1 00 00 00 00	 mov	 eax, DWORD PTR _m_TickCount
  00018	83 c0 01	 add	 eax, 1
  0001b	a3 00 00 00 00	 mov	 DWORD PTR _m_TickCount, eax

; 545  : 		PspSetupTaskSWEnv();

  00020	e8 00 00 00 00	 call	 _PspSetupTaskSWEnv

; 546  : 		WRITE_PORT_UCHAR((PUCHAR)0x20, 0x20);

  00025	6a 20		 push	 32			; 00000020H
  00027	6a 20		 push	 32			; 00000020H
  00029	e8 00 00 00 00	 call	 _WRITE_PORT_UCHAR
  0002e	83 c4 08	 add	 esp, 8

; 547  : 
; 548  : 		_asm iretd

  00031	cf		 iretd

; 549  : 	}

  00032	eb d5		 jmp	 SHORT $LN2@Psp_IRQ_Sy
$LN1@Psp_IRQ_Sy:

; 550  : 
; 551  : 	return 0;

  00034	33 c0		 xor	 eax, eax

; 552  : }

  00036	5f		 pop	 edi
  00037	5e		 pop	 esi
  00038	5b		 pop	 ebx
  00039	8b e5		 mov	 esp, ebp
  0003b	5d		 pop	 ebp
  0003c	c3		 ret	 0
_Psp_IRQ_SystemTimer ENDP
_TEXT	ENDS
PUBLIC	_PsCreateUserThread
; Function compile flags: /Odtp /ZI
;	COMDAT _PsCreateUserThread
_TEXT	SEGMENT
_pThread$ = -4						; size = 4
_ThreadHandle$ = 8					; size = 4
_ProcessHandle$ = 12					; size = 4
_StartContext$ = 16					; size = 4
_PsCreateUserThread PROC				; COMDAT

; 608  : {

  00000	55		 push	 ebp
  00001	8b ec		 mov	 ebp, esp
  00003	83 ec 44	 sub	 esp, 68			; 00000044H
  00006	53		 push	 ebx
  00007	56		 push	 esi
  00008	57		 push	 edi

; 609  : #define USER_APP_ENTRY_POINT		0x00101000 //유저 프로그램의 진입점의 주소
; 610  : #define USER_APP_STACK_PTR			0x001f0000 //유저 프로그램의 스택 주소
; 611  : #define USER_APP_STACK_SIZE			(1024*64)  //유저 프로그램의 스택의 크디
; 612  : 	PTHREAD_CONTROL_BLOCK pThread;
; 613  : 
; 614  : 	pThread = MmAllocateNonCachedMemory(sizeof(THREAD_CONTROL_BLOCK));

  00009	68 90 00 00 00	 push	 144			; 00000090H
  0000e	e8 00 00 00 00	 call	 _MmAllocateNonCachedMemory
  00013	83 c4 04	 add	 esp, 4
  00016	89 45 fc	 mov	 DWORD PTR _pThread$[ebp], eax

; 615  : 	if(pThread == NULL) return FALSE;

  00019	83 7d fc 00	 cmp	 DWORD PTR _pThread$[ebp], 0
  0001d	75 07		 jne	 SHORT $LN2@PsCreateUs
  0001f	33 c0		 xor	 eax, eax
  00021	e9 ad 00 00 00	 jmp	 $LN3@PsCreateUs
$LN2@PsCreateUs:

; 616  : 
; 617  : 	pThread->parent_process_handle		= ProcessHandle;

  00026	8b 45 fc	 mov	 eax, DWORD PTR _pThread$[ebp]
  00029	8b 4d 0c	 mov	 ecx, DWORD PTR _ProcessHandle$[ebp]
  0002c	89 08		 mov	 DWORD PTR [eax], ecx

; 618  : 	pThread->thread_id					= PspGetNextThreadID(ProcessHandle);

  0002e	8b 45 0c	 mov	 eax, DWORD PTR _ProcessHandle$[ebp]
  00031	50		 push	 eax
  00032	e8 00 00 00 00	 call	 _PspGetNextThreadID
  00037	83 c4 04	 add	 esp, 4
  0003a	8b 4d fc	 mov	 ecx, DWORD PTR _pThread$[ebp]
  0003d	89 41 04	 mov	 DWORD PTR [ecx+4], eax

; 619  : 	pThread->thread_handle				= (HANDLE)pThread;

  00040	8b 45 fc	 mov	 eax, DWORD PTR _pThread$[ebp]
  00043	8b 4d fc	 mov	 ecx, DWORD PTR _pThread$[ebp]
  00046	89 48 08	 mov	 DWORD PTR [eax+8], ecx

; 620  : 	pThread->thread_status				= THREAD_STATUS_STOP;

  00049	8b 45 fc	 mov	 eax, DWORD PTR _pThread$[ebp]
  0004c	c7 40 0c 00 00
	00 00		 mov	 DWORD PTR [eax+12], 0

; 621  : 	pThread->auto_delete				= FALSE;

  00053	8b 45 fc	 mov	 eax, DWORD PTR _pThread$[ebp]
  00056	c7 40 10 00 00
	00 00		 mov	 DWORD PTR [eax+16], 0

; 622  : 	pThread->pt_next_thread				= NULL;

  0005d	8b 45 fc	 mov	 eax, DWORD PTR _pThread$[ebp]
  00060	c7 40 14 00 00
	00 00		 mov	 DWORD PTR [eax+20], 0

; 623  : 	pThread->start_routine				= (PKSTART_ROUTINE)USER_APP_ENTRY_POINT;

  00067	8b 45 fc	 mov	 eax, DWORD PTR _pThread$[ebp]
  0006a	c7 40 18 00 10
	10 00		 mov	 DWORD PTR [eax+24], 1052672 ; 00101000H

; 624  : 	pThread->start_context				= StartContext;

  00071	8b 45 fc	 mov	 eax, DWORD PTR _pThread$[ebp]
  00074	8b 4d 10	 mov	 ecx, DWORD PTR _StartContext$[ebp]
  00077	89 48 1c	 mov	 DWORD PTR [eax+28], ecx

; 625  : 	pThread->pt_stack_base_address		= (int *)USER_APP_STACK_PTR;

  0007a	8b 45 fc	 mov	 eax, DWORD PTR _pThread$[ebp]
  0007d	c7 40 20 00 00
	1f 00		 mov	 DWORD PTR [eax+32], 2031616 ; 001f0000H

; 626  : 	pThread->stack_size					= USER_APP_STACK_SIZE;

  00084	8b 45 fc	 mov	 eax, DWORD PTR _pThread$[ebp]
  00087	c7 40 24 00 00
	01 00		 mov	 DWORD PTR [eax+36], 65536 ; 00010000H

; 627  : 	if(!PspAddNewThread(ProcessHandle, (HANDLE)pThread)) return FALSE;

  0008e	8b 45 fc	 mov	 eax, DWORD PTR _pThread$[ebp]
  00091	50		 push	 eax
  00092	8b 4d 0c	 mov	 ecx, DWORD PTR _ProcessHandle$[ebp]
  00095	51		 push	 ecx
  00096	e8 00 00 00 00	 call	 _PspAddNewThread
  0009b	83 c4 08	 add	 esp, 8
  0009e	85 c0		 test	 eax, eax
  000a0	75 04		 jne	 SHORT $LN1@PsCreateUs
  000a2	33 c0		 xor	 eax, eax
  000a4	eb 2d		 jmp	 SHORT $LN3@PsCreateUs
$LN1@PsCreateUs:

; 628  : 
; 629  : 	HalSetupTSS(&pThread->thread_tss32, TRUE, USER_APP_ENTRY_POINT, (int *)USER_APP_STACK_PTR, USER_APP_STACK_SIZE);

  000a6	68 00 00 01 00	 push	 65536			; 00010000H
  000ab	68 00 00 1f 00	 push	 2031616			; 001f0000H
  000b0	68 00 10 10 00	 push	 1052672			; 00101000H
  000b5	6a 01		 push	 1
  000b7	8b 45 fc	 mov	 eax, DWORD PTR _pThread$[ebp]
  000ba	83 c0 28	 add	 eax, 40			; 00000028H
  000bd	50		 push	 eax
  000be	e8 00 00 00 00	 call	 _HalSetupTSS
  000c3	83 c4 14	 add	 esp, 20			; 00000014H

; 630  : 
; 631  : 	*ThreadHandle = pThread;

  000c6	8b 45 08	 mov	 eax, DWORD PTR _ThreadHandle$[ebp]
  000c9	8b 4d fc	 mov	 ecx, DWORD PTR _pThread$[ebp]
  000cc	89 08		 mov	 DWORD PTR [eax], ecx

; 632  : 
; 633  : 	return TRUE;

  000ce	b8 01 00 00 00	 mov	 eax, 1
$LN3@PsCreateUs:

; 634  : }

  000d3	5f		 pop	 edi
  000d4	5e		 pop	 esi
  000d5	5b		 pop	 ebx
  000d6	8b e5		 mov	 esp, ebp
  000d8	5d		 pop	 ebp
  000d9	c3		 ret	 0
_PsCreateUserThread ENDP
_TEXT	ENDS
PUBLIC	_PsGetThreadStatus
; Function compile flags: /Odtp /ZI
;	COMDAT _PsGetThreadStatus
_TEXT	SEGMENT
_ThreadHandle$ = 8					; size = 4
_PsGetThreadStatus PROC					; COMDAT

; 638  : {

  00000	55		 push	 ebp
  00001	8b ec		 mov	 ebp, esp
  00003	83 ec 40	 sub	 esp, 64			; 00000040H
  00006	53		 push	 ebx
  00007	56		 push	 esi
  00008	57		 push	 edi

; 639  : 	return (THREAD_STATUS)(PsGetThreadPtr(ThreadHandle)->thread_status);

  00009	8b 45 08	 mov	 eax, DWORD PTR _ThreadHandle$[ebp]
  0000c	8b 40 0c	 mov	 eax, DWORD PTR [eax+12]

; 640  : }

  0000f	5f		 pop	 edi
  00010	5e		 pop	 esi
  00011	5b		 pop	 ebx
  00012	8b e5		 mov	 esp, ebp
  00014	5d		 pop	 ebp
  00015	c3		 ret	 0
_PsGetThreadStatus ENDP
_TEXT	ENDS
PUBLIC	_PsGetParentProcess
; Function compile flags: /Odtp /ZI
;	COMDAT _PsGetParentProcess
_TEXT	SEGMENT
_ThreadHandle$ = 8					; size = 4
_PsGetParentProcess PROC				; COMDAT

; 644  : {

  00000	55		 push	 ebp
  00001	8b ec		 mov	 ebp, esp
  00003	83 ec 40	 sub	 esp, 64			; 00000040H
  00006	53		 push	 ebx
  00007	56		 push	 esi
  00008	57		 push	 edi

; 645  : 	return (HANDLE)(PsGetThreadPtr(ThreadHandle)->parent_process_handle);

  00009	8b 45 08	 mov	 eax, DWORD PTR _ThreadHandle$[ebp]
  0000c	8b 00		 mov	 eax, DWORD PTR [eax]

; 646  : }

  0000e	5f		 pop	 edi
  0000f	5e		 pop	 esi
  00010	5b		 pop	 ebx
  00011	8b e5		 mov	 esp, ebp
  00013	5d		 pop	 ebp
  00014	c3		 ret	 0
_PsGetParentProcess ENDP
_TEXT	ENDS
PUBLIC	??_C@_0BE@JAMLPBLH@?7?5?5?5?7?7?5?$CFd?5?7?7?$CFs?5?5?5?$AN?6?$AA@ ; `string'
PUBLIC	??_C@_0BE@NNEDBPMM@?7?5?$CFd?5?7?7?5?5?5?7?7?$CFs?5?5?5?$AN?6?$AA@ ; `string'
PUBLIC	??_C@_0N@LBIIPKLM@User?5Process?$AA@		; `string'
PUBLIC	??_C@_05OJBIAJFH@Shell?$AA@			; `string'
PUBLIC	??_C@_0L@DIBBAPFL@FDD?5Driver?$AA@		; `string'
PUBLIC	??_C@_0BA@ICNKOJCM@Keyboard?5Driver?$AA@	; `string'
PUBLIC	??_C@_0BC@OPFNIKBF@Process?5Scheduler?$AA@	; `string'
PUBLIC	??_C@_0BE@FADMGMOH@?7PID?7?7TID?7?7CMD?5?5?5?$AN?6?$AA@ ; `string'
PUBLIC	_ShellCommand_ps
;	COMDAT ??_C@_0BE@JAMLPBLH@?7?5?5?5?7?7?5?$CFd?5?7?7?$CFs?5?5?5?$AN?6?$AA@
CONST	SEGMENT
??_C@_0BE@JAMLPBLH@?7?5?5?5?7?7?5?$CFd?5?7?7?$CFs?5?5?5?$AN?6?$AA@ DB 09H
	DB	'   ', 09H, 09H, ' %d ', 09H, 09H, '%s   ', 0dH, 0aH, 00H ; `string'
CONST	ENDS
;	COMDAT ??_C@_0BE@NNEDBPMM@?7?5?$CFd?5?7?7?5?5?5?7?7?$CFs?5?5?5?$AN?6?$AA@
CONST	SEGMENT
??_C@_0BE@NNEDBPMM@?7?5?$CFd?5?7?7?5?5?5?7?7?$CFs?5?5?5?$AN?6?$AA@ DB 09H
	DB	' %d ', 09H, 09H, '   ', 09H, 09H, '%s   ', 0dH, 0aH, 00H ; `string'
CONST	ENDS
;	COMDAT ??_C@_0N@LBIIPKLM@User?5Process?$AA@
CONST	SEGMENT
??_C@_0N@LBIIPKLM@User?5Process?$AA@ DB 'User Process', 00H ; `string'
CONST	ENDS
;	COMDAT ??_C@_05OJBIAJFH@Shell?$AA@
CONST	SEGMENT
??_C@_05OJBIAJFH@Shell?$AA@ DB 'Shell', 00H		; `string'
CONST	ENDS
;	COMDAT ??_C@_0L@DIBBAPFL@FDD?5Driver?$AA@
CONST	SEGMENT
??_C@_0L@DIBBAPFL@FDD?5Driver?$AA@ DB 'FDD Driver', 00H	; `string'
CONST	ENDS
;	COMDAT ??_C@_0BA@ICNKOJCM@Keyboard?5Driver?$AA@
CONST	SEGMENT
??_C@_0BA@ICNKOJCM@Keyboard?5Driver?$AA@ DB 'Keyboard Driver', 00H ; `string'
CONST	ENDS
;	COMDAT ??_C@_0BC@OPFNIKBF@Process?5Scheduler?$AA@
CONST	SEGMENT
??_C@_0BC@OPFNIKBF@Process?5Scheduler?$AA@ DB 'Process Scheduler', 00H ; `string'
CONST	ENDS
;	COMDAT ??_C@_0BE@FADMGMOH@?7PID?7?7TID?7?7CMD?5?5?5?$AN?6?$AA@
CONST	SEGMENT
??_C@_0BE@FADMGMOH@?7PID?7?7TID?7?7CMD?5?5?5?$AN?6?$AA@ DB 09H, 'PID', 09H
	DB	09H, 'TID', 09H, 09H, 'CMD   ', 0dH, 0aH, 00H ; `string'
; Function compile flags: /Odtp /ZI
CONST	ENDS
;	COMDAT _ShellCommand_ps
_TEXT	SEGMENT
tv67 = -84						; size = 4
_CASE$ = -16						; size = 4
_now_thread$ = -12					; size = 4
_now_process$ = -8					; size = 4
_process_mgr$ = -4					; size = 4
_ShellCommand_ps PROC					; COMDAT

; 651  : KERNELAPI VOID ShellCommand_ps(VOID) {

  00000	55		 push	 ebp
  00001	8b ec		 mov	 ebp, esp
  00003	83 ec 54	 sub	 esp, 84			; 00000054H
  00006	53		 push	 ebx
  00007	56		 push	 esi
  00008	57		 push	 edi

; 652  : 	const PROCESS_MANAGER_BLOCK *process_mgr;
; 653  : 	const PROCESS_CONTROL_BLOCK *now_process;
; 654  : 	const THREAD_CONTROL_BLOCK *now_thread;
; 655  : 
; 656  : 	char *CASE;
; 657  : 
; 658  : 	// 현재 돌고있는 프로세스 리스트를 가져온다.
; 659  : 	process_mgr = &m_ProcMgrBlk;

  00009	c7 45 fc 00 00
	00 00		 mov	 DWORD PTR _process_mgr$[ebp], OFFSET _m_ProcMgrBlk

; 660  : 
; 661  : 	now_process = process_mgr->pt_head_process;

  00010	8b 45 fc	 mov	 eax, DWORD PTR _process_mgr$[ebp]
  00013	8b 48 0c	 mov	 ecx, DWORD PTR [eax+12]
  00016	89 4d f8	 mov	 DWORD PTR _now_process$[ebp], ecx

; 662  : 	
; 663  : 	CrtPrintf("\tPID\t\tTID\t\tCMD   \r\n");  // 명령어 실행창 첫줄

  00019	68 00 00 00 00	 push	 OFFSET ??_C@_0BE@FADMGMOH@?7PID?7?7TID?7?7CMD?5?5?5?$AN?6?$AA@
  0001e	e8 00 00 00 00	 call	 _CrtPrintf
  00023	83 c4 04	 add	 esp, 4
$LN11@ShellComma:

; 664  : 	// 프로세스를 탐색하는 반복문 내에 쓰레드를 탐색하는 반복문을 넣어 각 프로세스마다 보유하고 있는 쓰레드들을 출력한다.
; 665  : 	while(now_process) {

  00026	83 7d f8 00	 cmp	 DWORD PTR _now_process$[ebp], 0
  0002a	0f 84 9a 00 00
	00		 je	 $LN12@ShellComma

; 666  : 		// 프로세스 ID별 프로세스 이름을 설정해준다.
; 667  : 		switch(now_process->process_id) {

  00030	8b 45 f8	 mov	 eax, DWORD PTR _now_process$[ebp]
  00033	8b 08		 mov	 ecx, DWORD PTR [eax]
  00035	89 4d ac	 mov	 DWORD PTR tv67[ebp], ecx
  00038	83 7d ac 03	 cmp	 DWORD PTR tv67[ebp], 3
  0003c	77 2e		 ja	 SHORT $LN3@ShellComma
  0003e	8b 55 ac	 mov	 edx, DWORD PTR tv67[ebp]
  00041	ff 24 95 00 00
	00 00		 jmp	 DWORD PTR $LN14@ShellComma[edx*4]
$LN7@ShellComma:

; 668  : 		case 0:
; 669  : 			CASE = "Process Scheduler";

  00048	c7 45 f0 00 00
	00 00		 mov	 DWORD PTR _CASE$[ebp], OFFSET ??_C@_0BC@OPFNIKBF@Process?5Scheduler?$AA@

; 670  : 			break;

  0004f	eb 22		 jmp	 SHORT $LN8@ShellComma
$LN6@ShellComma:

; 671  : 		case 1:
; 672  : 			CASE = "Keyboard Driver";

  00051	c7 45 f0 00 00
	00 00		 mov	 DWORD PTR _CASE$[ebp], OFFSET ??_C@_0BA@ICNKOJCM@Keyboard?5Driver?$AA@

; 673  : 			break;

  00058	eb 19		 jmp	 SHORT $LN8@ShellComma
$LN5@ShellComma:

; 674  : 		case 2:
; 675  : 			CASE = "FDD Driver";

  0005a	c7 45 f0 00 00
	00 00		 mov	 DWORD PTR _CASE$[ebp], OFFSET ??_C@_0L@DIBBAPFL@FDD?5Driver?$AA@

; 676  : 			break;

  00061	eb 10		 jmp	 SHORT $LN8@ShellComma
$LN4@ShellComma:

; 677  : 		case 3:
; 678  : 			CASE = "Shell";

  00063	c7 45 f0 00 00
	00 00		 mov	 DWORD PTR _CASE$[ebp], OFFSET ??_C@_05OJBIAJFH@Shell?$AA@

; 679  : 			break;

  0006a	eb 07		 jmp	 SHORT $LN8@ShellComma
$LN3@ShellComma:

; 680  : 		default:
; 681  : 			CASE = "User Process";

  0006c	c7 45 f0 00 00
	00 00		 mov	 DWORD PTR _CASE$[ebp], OFFSET ??_C@_0N@LBIIPKLM@User?5Process?$AA@
$LN8@ShellComma:

; 682  : 			break;
; 683  : 		}
; 684  : 
; 685  : 		// 해당 프로세스의 내용 출력
; 686  : 		CrtPrintf("\t %d \t\t   \t\t%s   \r\n", now_process->process_id, CASE);

  00073	8b 45 f0	 mov	 eax, DWORD PTR _CASE$[ebp]
  00076	50		 push	 eax
  00077	8b 4d f8	 mov	 ecx, DWORD PTR _now_process$[ebp]
  0007a	8b 11		 mov	 edx, DWORD PTR [ecx]
  0007c	52		 push	 edx
  0007d	68 00 00 00 00	 push	 OFFSET ??_C@_0BE@NNEDBPMM@?7?5?$CFd?5?7?7?5?5?5?7?7?$CFs?5?5?5?$AN?6?$AA@
  00082	e8 00 00 00 00	 call	 _CrtPrintf
  00087	83 c4 0c	 add	 esp, 12			; 0000000cH

; 687  : 
; 688  : 		// 현재 프로세스의 첫번째 쓰레드를 가져온다.
; 689  : 		now_thread = now_process->pt_head_thread;

  0008a	8b 45 f8	 mov	 eax, DWORD PTR _now_process$[ebp]
  0008d	8b 48 14	 mov	 ecx, DWORD PTR [eax+20]
  00090	89 4d f4	 mov	 DWORD PTR _now_thread$[ebp], ecx
$LN2@ShellComma:

; 690  : 
; 691  : 		// now_thread가 없는 경우까지 반복(즉 모든 thread 탐색)
; 692  : 		while(now_thread) {

  00093	83 7d f4 00	 cmp	 DWORD PTR _now_thread$[ebp], 0
  00097	74 23		 je	 SHORT $LN1@ShellComma

; 693  : 			// 해당 쓰레드의 ID를 출력한다.
; 694  : 			CrtPrintf("\t   \t\t %d \t\t%s   \r\n", now_thread->thread_id, CASE);

  00099	8b 45 f0	 mov	 eax, DWORD PTR _CASE$[ebp]
  0009c	50		 push	 eax
  0009d	8b 4d f4	 mov	 ecx, DWORD PTR _now_thread$[ebp]
  000a0	8b 51 04	 mov	 edx, DWORD PTR [ecx+4]
  000a3	52		 push	 edx
  000a4	68 00 00 00 00	 push	 OFFSET ??_C@_0BE@JAMLPBLH@?7?5?5?5?7?7?5?$CFd?5?7?7?$CFs?5?5?5?$AN?6?$AA@
  000a9	e8 00 00 00 00	 call	 _CrtPrintf
  000ae	83 c4 0c	 add	 esp, 12			; 0000000cH

; 695  : 			// 다음 쓰레드를 가져온다.
; 696  : 			now_thread = now_thread->pt_next_thread;

  000b1	8b 45 f4	 mov	 eax, DWORD PTR _now_thread$[ebp]
  000b4	8b 48 14	 mov	 ecx, DWORD PTR [eax+20]
  000b7	89 4d f4	 mov	 DWORD PTR _now_thread$[ebp], ecx

; 697  : 		}

  000ba	eb d7		 jmp	 SHORT $LN2@ShellComma
$LN1@ShellComma:

; 698  : 
; 699  : 		// 다음 프로세스
; 700  : 		now_process = now_process->pt_next_process;

  000bc	8b 45 f8	 mov	 eax, DWORD PTR _now_process$[ebp]
  000bf	8b 48 08	 mov	 ecx, DWORD PTR [eax+8]
  000c2	89 4d f8	 mov	 DWORD PTR _now_process$[ebp], ecx

; 701  : 	}

  000c5	e9 5c ff ff ff	 jmp	 $LN11@ShellComma
$LN12@ShellComma:

; 702  : 	return TRUE;
; 703  : }

  000ca	5f		 pop	 edi
  000cb	5e		 pop	 esi
  000cc	5b		 pop	 ebx
  000cd	8b e5		 mov	 esp, ebp
  000cf	5d		 pop	 ebp
  000d0	c3		 ret	 0
  000d1	8d 49 00	 npad	 3
$LN14@ShellComma:
  000d4	00 00 00 00	 DD	 $LN7@ShellComma
  000d8	00 00 00 00	 DD	 $LN6@ShellComma
  000dc	00 00 00 00	 DD	 $LN5@ShellComma
  000e0	00 00 00 00	 DD	 $LN4@ShellComma
_ShellCommand_ps ENDP
_TEXT	ENDS
END
